(dp1
S'messages'
p2
(dp3
S'autolap_trigger'
p4
S'enum'
p5
sS'left_right_balance'
p6
S'uint8'
p7
sS'workout_capabilities'
p8
S'uint32z'
p9
sS'lap_trigger'
p10
S'enum'
p11
sS'course_capabilities'
p12
S'uint32z'
p13
sS'session_trigger'
p14
S'enum'
p15
sS'file_flags'
p16
S'uint8z'
p17
sS'left_right_balance_100'
p18
S'uint16'
p19
sS'sub_sport'
p20
S'enum'
p21
sS'mesg_count'
p22
S'enum'
p23
sS'device_index'
p24
S'uint8'
p25
sS'sport_bits_0'
p26
S'uint8z'
p27
sS'sport_bits_1'
p28
S'uint8z'
p29
sS'sport_bits_2'
p30
S'uint8z'
p31
sS'timer_trigger'
p32
S'enum'
p33
sS'fitness_equipment_state'
p34
S'enum'
p35
sS'activity_level'
p36
S'enum'
p37
sS'checksum'
p38
S'uint8'
p39
sS'rider_position_type'
p40
S'enum'
p41
sS'garmin_product'
p42
S'uint16'
p43
sS'hr_zone_calc'
p44
S'enum'
p45
sS'local_date_time'
p46
S'uint32'
p47
sS'hr_type'
p48
S'enum'
p49
sS'workout_power'
p50
S'uint32'
p51
sS'activity_subtype'
p52
S'enum'
p53
sS'gender'
p54
S'enum'
p55
sS'antplus_device_type'
p56
S'uint8'
p57
sS'bp_status'
p58
S'enum'
p59
sS'battery_status'
p60
S'uint8'
p61
sS'pwr_zone_calc'
p62
S'enum'
p63
sS'workout_hr'
p64
S'uint32'
p65
sS'course_point'
p66
S'enum'
p67
sS'stroke_type'
p68
S'enum'
p69
sS'event_type'
p70
S'enum'
p71
sS'weight'
p72
S'uint16'
p73
sS'body_location'
p74
S'enum'
p75
sS'intensity'
p76
S'enum'
p77
sS'connectivity_capabilities'
p78
S'uint32z'
p79
sS'file'
p80
S'enum'
p81
sS'sport'
p82
S'enum'
p83
sS'display_measure'
p84
S'enum'
p85
sS'event'
p86
S'enum'
p87
sS'message_index'
p88
S'uint16'
p89
sS'goal'
p90
S'enum'
p91
sS'schedule'
p92
S'enum'
p93
sS'wkt_step_target'
p94
S'enum'
p95
sS'wkt_step_duration'
p96
S'enum'
p97
sS'display_position'
p98
S'enum'
p99
sS'goal_recurrence'
p100
S'enum'
p101
sS'display_power'
p102
S'enum'
p103
sS'activity'
p104
S'enum'
p105
sS'source_type'
p106
S'enum'
p107
sS'display_heart'
p108
S'enum'
p109
sS'manufacturer'
p110
S'uint16'
p111
sS'length_type'
p112
S'enum'
p113
sS'date_time'
p114
S'uint32'
p115
sS'language'
p116
S'enum'
p117
sS'activity_class'
p118
S'enum'
p119
sS'time_zone'
p120
S'enum'
p121
sS'swim_stroke'
p122
S'enum'
p123
sS'user_local_id'
p124
S'uint16'
p125
sS'mesg_num'
p126
S'uint16'
p127
sS'ant_network'
p128
S'enum'
p129
sS'activity_type'
p130
S'enum'
p131
ssS'message_names'
p132
(dp133
Vcadence_zone
p134
(lp135
(dp136
S'Field Def #'
p137
F254
sS'Field Type'
p138
Vmessage_index
p139
sS'Field Name'
p140
g139
sa(dp141
g137
F0
sg138
Vuint8
p142
sg140
Vhigh_value
p143
sa(dp144
g137
F1
sg138
Vstring
p145
sg140
Vname
p146
sasVmesg_capabilities
p147
(lp148
(dp149
g137
F254
sg138
g139
sg140
g139
sa(dp150
g137
F0
sg138
Vfile
p151
sg140
g151
sa(dp152
g137
F1
sg138
Vmesg_num
p153
sg140
g153
sa(dp154
g137
F2
sg138
Vmesg_count
p155
sg140
Vcount_type
p156
sa(dp157
g137
F3
sg138
Vuint16
p158
sg140
Vcount
p159
sa(dp160
g137
Fnan
sg138
g158
sg140
Vnum_per_file
p161
sa(dp162
g137
Fnan
sg138
g158
sg140
Vmax_per_file
p163
sa(dp164
g137
Fnan
sg138
g158
sg140
Vmax_per_file_type
p165
sasVmonitoring_info
p166
(lp167
(dp168
g137
F253
sg138
Vdate_time
p169
sg140
Vtimestamp
p170
sa(dp171
g137
F0
sg138
Vlocal_date_time
p172
sg140
Vlocal_timestamp
p173
sa(dp174
g137
F1
sg138
Vactivity_type
p175
sg140
g175
sa(dp176
g137
F3
sg138
g158
sg140
Vcycles_to_distance
p177
sa(dp178
g137
F4
sg138
g158
sg140
Vcycles_to_calories
p179
sa(dp180
g137
F5
sg138
g158
sg140
Vresting_metabolic_rate
p181
sasVzones_target
p182
(lp183
(dp184
g137
F1
sg138
g142
sg140
Vmax_heart_rate
p185
sa(dp186
g137
F2
sg138
g142
sg140
Vthreshold_heart_rate
p187
sa(dp188
g137
F3
sg138
g158
sg140
Vfunctional_threshold_power
p189
sa(dp190
g137
F5
sg138
Vhr_zone_calc
p191
sg140
Vhr_calc_type
p192
sa(dp193
g137
F7
sg138
Vpwr_zone_calc
p194
sg140
Vpwr_calc_type
p195
sasVblood_pressure
p196
(lp197
(dp198
g137
F253
sg138
g169
sg140
g170
sa(dp199
g137
F0
sg138
g158
sg140
Vsystolic_pressure
p200
sa(dp201
g137
F1
sg138
g158
sg140
Vdiastolic_pressure
p202
sa(dp203
g137
F2
sg138
g158
sg140
Vmean_arterial_pressure
p204
sa(dp205
g137
F3
sg138
g158
sg140
Vmap_3_sample_mean
p206
sa(dp207
g137
F4
sg138
g158
sg140
Vmap_morning_values
p208
sa(dp209
g137
F5
sg138
g158
sg140
Vmap_evening_values
p210
sa(dp211
g137
F6
sg138
g142
sg140
Vheart_rate
p212
sa(dp213
g137
F7
sg138
Vhr_type
p214
sg140
Vheart_rate_type
p215
sa(dp216
g137
F8
sg138
Vbp_status
p217
sg140
Vstatus
p218
sa(dp219
g137
F9
sg138
g139
sg140
Vuser_profile_index
p220
sasVcourse
p221
(lp222
(dp223
g137
F4
sg138
Vsport
p224
sg140
g224
sa(dp225
g137
F5
sg138
g145
sg140
g146
sa(dp226
g137
F6
sg138
Vcourse_capabilities
p227
sg140
Vcapabilities
p228
sasVmet_zone
p229
(lp230
(dp231
g137
F254
sg138
g139
sg140
g139
sa(dp232
g137
F1
sg138
g142
sg140
Vhigh_bpm
p233
sa(dp234
g137
F2
sg138
g158
sg140
Vcalories
p235
sa(dp236
g137
F3
sg138
g142
sg140
Vfat_calories
p237
sasVslave_device
p238
(lp239
(dp240
g137
F0
sg138
Vmanufacturer
p241
sg140
g241
sa(dp242
g137
F1
sg138
g158
sg140
Vproduct
p243
sa(dp244
g137
Fnan
sg138
Vgarmin_product
p245
sg140
g245
sasVdevice_settings
p246
(lp247
(dp248
g137
F0
sg138
g142
sg140
Vactive_time_zone
p249
sa(dp250
g137
F1
sg138
Vuint32
p251
sg140
Vutc_offset
p252
sa(dp253
g137
F5
sg138
Vsint8
p254
sg140
Vtime_zone_offset
p255
sasg224
(lp256
(dp257
g137
F0
sg138
g224
sg140
g224
sa(dp258
g137
F1
sg138
Vsub_sport
p259
sg140
g259
sa(dp260
g137
F3
sg138
g145
sg140
g146
sasVevent
p261
(lp262
(dp263
g137
F253
sg138
g169
sg140
g170
sa(dp264
g137
F0
sg138
g261
sg140
g261
sa(dp265
g137
F1
sg138
Vevent_type
p266
sg140
g266
sa(dp267
g137
F2
sg138
g158
sg140
Vdata16
p268
sa(dp269
g137
F3
sg138
g251
sg140
Vdata
p270
sa(dp271
g137
Fnan
sg138
Vtimer_trigger
p272
sg140
g272
sa(dp273
g137
Fnan
sg138
g139
sg140
Vcourse_point_index
p274
sa(dp275
g137
Fnan
sg138
g158
sg140
Vbattery_level
p276
sa(dp277
g137
Fnan
sg138
g158
sg140
Vvirtual_partner_speed
p278
sa(dp279
g137
Fnan
sg138
g142
sg140
Vhr_high_alert
p280
sa(dp281
g137
Fnan
sg138
g142
sg140
Vhr_low_alert
p282
sa(dp283
g137
Fnan
sg138
g251
sg140
Vspeed_high_alert
p284
sa(dp285
g137
Fnan
sg138
g251
sg140
Vspeed_low_alert
p286
sa(dp287
g137
Fnan
sg138
g158
sg140
Vcad_high_alert
p288
sa(dp289
g137
Fnan
sg138
g158
sg140
Vcad_low_alert
p290
sa(dp291
g137
Fnan
sg138
g158
sg140
Vpower_high_alert
p292
sa(dp293
g137
Fnan
sg138
g158
sg140
Vpower_low_alert
p294
sa(dp295
g137
Fnan
sg138
g251
sg140
Vtime_duration_alert
p296
sa(dp297
g137
Fnan
sg138
g251
sg140
Vdistance_duration_alert
p298
sa(dp299
g137
Fnan
sg138
g251
sg140
Vcalorie_duration_alert
p300
sa(dp301
g137
Fnan
sg138
Vfitness_equipment_state
p302
sg140
g302
sa(dp303
g137
Fnan
sg138
g251
sg140
Vsport_point
p304
sa(dp305
g137
Fnan
sg138
g251
sg140
Vgear_change_data
p306
sa(dp307
g137
Fnan
sg138
Vrider_position_type
p308
sg140
Vrider_position
p309
sa(dp310
g137
F4
sg138
g142
sg140
Vevent_group
p311
sa(dp312
g137
F7
sg138
g158
sg140
Vscore
p313
sa(dp314
g137
F8
sg138
g158
sg140
Vopponent_score
p315
sa(dp316
g137
F9
sg138
Vuint8z
p317
sg140
Vfront_gear_num
p318
sa(dp319
g137
F10
sg138
g317
sg140
Vfront_gear
p320
sa(dp321
g137
F11
sg138
g317
sg140
Vrear_gear_num
p322
sa(dp323
g137
F12
sg138
g317
sg140
Vrear_gear
p324
sasVpower_zone
p325
(lp326
(dp327
g137
F254
sg138
g139
sg140
g139
sa(dp328
g137
F1
sg138
g158
sg140
g143
sa(dp329
g137
F2
sg138
g145
sg140
g146
sasVfile_capabilities
p330
(lp331
(dp332
g137
F254
sg138
g139
sg140
g139
sa(dp333
g137
F0
sg138
g151
sg140
Vtype
p334
sa(dp335
g137
F1
sg138
Vfile_flags
p336
sg140
Vflags
p337
sa(dp338
g137
F2
sg138
g145
sg140
Vdirectory
p339
sa(dp340
g137
F3
sg138
g158
sg140
Vmax_count
p341
sa(dp342
g137
F4
sg138
g251
sg140
Vmax_size
p343
sasVfield_capabilities
p344
(lp345
(dp346
g137
F254
sg138
g139
sg140
g139
sa(dp347
g137
F0
sg138
g151
sg140
g151
sa(dp348
g137
F1
sg138
g153
sg140
g153
sa(dp349
g137
F2
sg138
g142
sg140
Vfield_num
p350
sa(dp351
g137
F3
sg138
g158
sg140
g159
sasVmonitoring
p352
(lp353
(dp354
g137
F253
sg138
g169
sg140
g170
sa(dp355
g137
F0
sg138
Vdevice_index
p356
sg140
g356
sa(dp357
g137
F1
sg138
g158
sg140
g235
sa(dp358
g137
F2
sg138
g251
sg140
Vdistance
p359
sa(dp360
g137
F3
sg138
g251
sg140
Vcycles
p361
sa(dp362
g137
Fnan
sg138
g251
sg140
Vsteps
p363
sa(dp364
g137
Fnan
sg138
g251
sg140
Vstrokes
p365
sa(dp366
g137
F4
sg138
g251
sg140
Vactive_time
p367
sa(dp368
g137
F5
sg138
g175
sg140
g175
sa(dp369
g137
F6
sg138
Vactivity_subtype
p370
sg140
g370
sa(dp371
g137
F7
sg138
Vactivity_level
p372
sg140
g372
sa(dp373
g137
F8
sg138
g158
sg140
Vdistance_16
p374
sa(dp375
g137
F9
sg138
g158
sg140
Vcycles_16
p376
sa(dp377
g137
F10
sg138
g158
sg140
Vactive_time_16
p378
sa(dp379
g137
F11
sg138
g172
sg140
g173
sa(dp380
g137
F12
sg138
Vsint16
p381
sg140
Vtemperature
p382
sa(dp383
g137
F14
sg138
g381
sg140
Vtemperature_min
p384
sa(dp385
g137
F15
sg138
g381
sg140
Vtemperature_max
p386
sa(dp387
g137
F16
sg138
g158
sg140
Vactivity_time
p388
sa(dp389
g137
F19
sg138
g158
sg140
Vactive_calories
p390
sa(dp391
g137
F24
sg138
Vbyte
p392
sg140
Vcurrent_activity_type_intensity
p393
sa(dp394
g137
F25
sg138
g142
sg140
Vtimestamp_min_8
p395
sa(dp396
g137
F26
sg138
g158
sg140
Vtimestamp_16
p397
sa(dp398
g137
F27
sg138
g142
sg140
g212
sa(dp399
g137
F28
sg138
g142
sg140
Vintensity
p400
sa(dp401
g137
F29
sg138
g158
sg140
Vduration_min
p402
sa(dp403
g137
F30
sg138
g251
sg140
Vduration
p404
sasVgoal
p405
(lp406
(dp407
g137
F254
sg138
g139
sg140
g139
sa(dp408
g137
F0
sg138
g224
sg140
g224
sa(dp409
g137
F1
sg138
g259
sg140
g259
sa(dp410
g137
F2
sg138
g169
sg140
Vstart_date
p411
sa(dp412
g137
F3
sg138
g169
sg140
Vend_date
p413
sa(dp414
g137
F4
sg138
g405
sg140
g334
sa(dp415
g137
F5
sg138
g251
sg140
Vvalue
p416
sa(dp417
g137
F6
sg138
Vbool
p418
sg140
Vrepeat
p419
sa(dp420
g137
F7
sg138
g251
sg140
Vtarget_value
p421
sa(dp422
g137
F8
sg138
Vgoal_recurrence
p423
sg140
Vrecurrence
p424
sa(dp425
g137
F9
sg138
g158
sg140
Vrecurrence_value
p426
sa(dp427
g137
F10
sg138
g418
sg140
Venabled
p428
sasVhrv
p429
(lp430
(dp431
g137
F0
sg138
g158
sg140
Vtime
p432
sasVdevice_info
p433
(lp434
(dp435
g137
F253
sg138
g169
sg140
g170
sa(dp436
g137
F0
sg138
g356
sg140
g356
sa(dp437
g137
F1
sg138
g142
sg140
Vdevice_type
p438
sa(dp439
g137
Fnan
sg138
Vantplus_device_type
p440
sg140
g440
sa(dp441
g137
Fnan
sg138
g142
sg140
Vant_device_type
p442
sa(dp443
g137
F2
sg138
g241
sg140
g241
sa(dp444
g137
F3
sg138
Vuint32z
p445
sg140
Vserial_number
p446
sa(dp447
g137
F4
sg138
g158
sg140
g243
sa(dp448
g137
F5
sg138
g158
sg140
Vsoftware_version
p449
sa(dp450
g137
F6
sg138
g142
sg140
Vhardware_version
p451
sa(dp452
g137
F7
sg138
g251
sg140
Vcum_operating_time
p453
sa(dp454
g137
F10
sg138
g158
sg140
Vbattery_voltage
p455
sa(dp456
g137
F11
sg138
Vbattery_status
p457
sg140
g457
sa(dp458
g137
F18
sg138
Vbody_location
p459
sg140
Vsensor_position
p460
sa(dp461
g137
F19
sg138
g145
sg140
Vdescriptor
p462
sa(dp463
g137
F20
sg138
g317
sg140
Vant_transmission_type
p464
sa(dp465
g137
F21
sg138
Vuint16z
p466
sg140
Vant_device_number
p467
sa(dp468
g137
F22
sg138
Vant_network
p469
sg140
g469
sa(dp470
g137
F25
sg138
Vsource_type
p471
sg140
g471
sasg228
(lp472
(dp473
g137
F0
sg138
g317
sg140
Vlanguages
p474
sa(dp475
g137
F1
sg138
Vsport_bits_0
p476
sg140
Vsports
p477
sa(dp478
g137
F21
sg138
Vworkout_capabilities
p479
sg140
Vworkouts_supported
p480
sa(dp481
g137
F23
sg138
Vconnectivity_capabilities
p482
sg140
Vconnectivity_supported
p483
sasVtotals
p484
(lp485
(dp486
g137
F254
sg138
g139
sg140
g139
sa(dp487
g137
F253
sg138
g169
sg140
g170
sa(dp488
g137
F0
sg138
g251
sg140
Vtimer_time
p489
sa(dp490
g137
F1
sg138
g251
sg140
g359
sa(dp491
g137
F2
sg138
g251
sg140
g235
sa(dp492
g137
F3
sg138
g224
sg140
g224
sa(dp493
g137
F4
sg138
g251
sg140
Velapsed_time
p494
sa(dp495
g137
F5
sg138
g158
sg140
Vsessions
p496
sa(dp497
g137
F6
sg138
g251
sg140
g367
sa(dp498
g137
F9
sg138
g142
sg140
Vsport_index
p499
sasVtraining_file
p500
(lp501
(dp502
g137
F253
sg138
g169
sg140
g170
sa(dp503
g137
F0
sg138
g151
sg140
g334
sa(dp504
g137
F1
sg138
g241
sg140
g241
sa(dp505
g137
F2
sg138
g158
sg140
g243
sa(dp506
g137
Fnan
sg138
g245
sg140
g245
sa(dp507
g137
F3
sg138
g445
sg140
g446
sa(dp508
g137
F4
sg138
g169
sg140
Vtime_created
p509
sasVmemo_glob
p510
(lp511
(dp512
g137
F250
sg138
g251
sg140
Vpart_index
p513
sa(dp514
g137
F0
sg138
g392
sg140
Vmemo
p515
sa(dp516
g137
F1
sg138
g158
sg140
Vmessage_number
p517
sa(dp518
g137
F2
sg138
g139
sg140
g139
sasVhr_zone
p519
(lp520
(dp521
g137
F254
sg138
g139
sg140
g139
sa(dp522
g137
F1
sg138
g142
sg140
g233
sa(dp523
g137
F2
sg138
g145
sg140
g146
sasVuser_profile
p524
(lp525
(dp526
g137
F254
sg138
g139
sg140
g139
sa(dp527
g137
F0
sg138
g145
sg140
Vfriendly_name
p528
sa(dp529
g137
F1
sg138
Vgender
p530
sg140
g530
sa(dp531
g137
F2
sg138
g142
sg140
Vage
p532
sa(dp533
g137
F3
sg138
g142
sg140
Vheight
p534
sa(dp535
g137
F4
sg138
g158
sg140
Vweight
p536
sa(dp537
g137
F5
sg138
Vlanguage
p538
sg140
g538
sa(dp539
g137
F6
sg138
Vdisplay_measure
p540
sg140
Velev_setting
p541
sa(dp542
g137
F7
sg138
g540
sg140
Vweight_setting
p543
sa(dp544
g137
F8
sg138
g142
sg140
Vresting_heart_rate
p545
sa(dp546
g137
F9
sg138
g142
sg140
Vdefault_max_running_heart_rate
p547
sa(dp548
g137
F10
sg138
g142
sg140
Vdefault_max_biking_heart_rate
p549
sa(dp550
g137
F11
sg138
g142
sg140
Vdefault_max_heart_rate
p551
sa(dp552
g137
F12
sg138
Vdisplay_heart
p553
sg140
Vhr_setting
p554
sa(dp555
g137
F13
sg138
g540
sg140
Vspeed_setting
p556
sa(dp557
g137
F14
sg138
g540
sg140
Vdist_setting
p558
sa(dp559
g137
F16
sg138
Vdisplay_power
p560
sg140
Vpower_setting
p561
sa(dp562
g137
F17
sg138
Vactivity_class
p563
sg140
g563
sa(dp564
g137
F18
sg138
Vdisplay_position
p565
sg140
Vposition_setting
p566
sa(dp567
g137
F21
sg138
g540
sg140
Vtemperature_setting
p568
sa(dp569
g137
F22
sg138
Vuser_local_id
p570
sg140
Vlocal_id
p571
sa(dp572
g137
F23
sg138
g392
sg140
Vglobal_id
p573
sa(dp574
g137
F30
sg138
g540
sg140
Vheight_setting
p575
sasVworkout
p576
(lp577
(dp578
g137
F4
sg138
g224
sg140
g224
sa(dp579
g137
F5
sg138
g479
sg140
g228
sa(dp580
g137
F6
sg138
g158
sg140
Vnum_valid_steps
p581
sa(dp582
g137
F8
sg138
g145
sg140
Vwkt_name
p583
sasVschedule
p584
(lp585
(dp586
g137
F0
sg138
g241
sg140
g241
sa(dp587
g137
F1
sg138
g158
sg140
g243
sa(dp588
g137
Fnan
sg138
g245
sg140
g245
sa(dp589
g137
F2
sg138
g445
sg140
g446
sa(dp590
g137
F3
sg138
g169
sg140
g509
sa(dp591
g137
F4
sg138
g418
sg140
Vcompleted
p592
sa(dp593
g137
F5
sg138
g584
sg140
g334
sa(dp594
g137
F6
sg138
g172
sg140
Vscheduled_time
p595
sasVfile_id
p596
(lp597
(dp598
g137
F0
sg138
g151
sg140
g334
sa(dp599
g137
F1
sg138
g241
sg140
g241
sa(dp600
g137
F2
sg138
g158
sg140
g243
sa(dp601
g137
Fnan
sg138
g245
sg140
g245
sa(dp602
g137
F3
sg138
g445
sg140
g446
sa(dp603
g137
F4
sg138
g169
sg140
g509
sa(dp604
g137
F5
sg138
g158
sg140
Vnumber
p605
sasVspeed_zone
p606
(lp607
(dp608
g137
F254
sg138
g139
sg140
g139
sa(dp609
g137
F0
sg138
g158
sg140
g143
sa(dp610
g137
F1
sg138
g145
sg140
g146
sasVweight_scale
p611
(lp612
(dp613
g137
F253
sg138
g169
sg140
g170
sa(dp614
g137
F0
sg138
g536
sg140
g536
sa(dp615
g137
F1
sg138
g158
sg140
Vpercent_fat
p616
sa(dp617
g137
F2
sg138
g158
sg140
Vpercent_hydration
p618
sa(dp619
g137
F3
sg138
g158
sg140
Vvisceral_fat_mass
p620
sa(dp621
g137
F4
sg138
g158
sg140
Vbone_mass
p622
sa(dp623
g137
F5
sg138
g158
sg140
Vmuscle_mass
p624
sa(dp625
g137
F7
sg138
g158
sg140
Vbasal_met
p626
sa(dp627
g137
F8
sg138
g142
sg140
Vphysique_rating
p628
sa(dp629
g137
F9
sg138
g158
sg140
Vactive_met
p630
sa(dp631
g137
F10
sg138
g142
sg140
Vmetabolic_age
p632
sa(dp633
g137
F11
sg138
g142
sg140
Vvisceral_fat_rating
p634
sa(dp635
g137
F12
sg138
g139
sg140
g220
sasVlap
p636
(lp637
(dp638
g137
F254
sg138
g139
sg140
g139
sa(dp639
g137
F253
sg138
g169
sg140
g170
sa(dp640
g137
F0
sg138
g261
sg140
g261
sa(dp641
g137
F1
sg138
g266
sg140
g266
sa(dp642
g137
F2
sg138
g169
sg140
Vstart_time
p643
sa(dp644
g137
F3
sg138
Vsint32
p645
sg140
Vstart_position_lat
p646
sa(dp647
g137
F4
sg138
g645
sg140
Vstart_position_long
p648
sa(dp649
g137
F5
sg138
g645
sg140
Vend_position_lat
p650
sa(dp651
g137
F6
sg138
g645
sg140
Vend_position_long
p652
sa(dp653
g137
F7
sg138
g251
sg140
Vtotal_elapsed_time
p654
sa(dp655
g137
F8
sg138
g251
sg140
Vtotal_timer_time
p656
sa(dp657
g137
F9
sg138
g251
sg140
Vtotal_distance
p658
sa(dp659
g137
F10
sg138
g251
sg140
Vtotal_cycles
p660
sa(dp661
g137
Fnan
sg138
g251
sg140
Vtotal_strides
p662
sa(dp663
g137
F11
sg138
g158
sg140
Vtotal_calories
p664
sa(dp665
g137
F12
sg138
g158
sg140
Vtotal_fat_calories
p666
sa(dp667
g137
F13
sg138
g158
sg140
Vavg_speed
p668
sa(dp669
g137
F14
sg138
g158
sg140
Vmax_speed
p670
sa(dp671
g137
F15
sg138
g142
sg140
Vavg_heart_rate
p672
sa(dp673
g137
F16
sg138
g142
sg140
g185
sa(dp674
g137
F17
sg138
g142
sg140
Vavg_cadence
p675
sa(dp676
g137
Fnan
sg138
g142
sg140
Vavg_running_cadence
p677
sa(dp678
g137
F18
sg138
g142
sg140
Vmax_cadence
p679
sa(dp680
g137
Fnan
sg138
g142
sg140
Vmax_running_cadence
p681
sa(dp682
g137
F19
sg138
g158
sg140
Vavg_power
p683
sa(dp684
g137
F20
sg138
g158
sg140
Vmax_power
p685
sa(dp686
g137
F21
sg138
g158
sg140
Vtotal_ascent
p687
sa(dp688
g137
F22
sg138
g158
sg140
Vtotal_descent
p689
sa(dp690
g137
F23
sg138
g400
sg140
g400
sa(dp691
g137
F24
sg138
Vlap_trigger
p692
sg140
g692
sa(dp693
g137
F25
sg138
g224
sg140
g224
sa(dp694
g137
F26
sg138
g142
sg140
g311
sa(dp695
g137
F32
sg138
g158
sg140
Vnum_lengths
p696
sa(dp697
g137
F33
sg138
g158
sg140
Vnormalized_power
p698
sa(dp699
g137
F34
sg138
Vleft_right_balance_100
p700
sg140
Vleft_right_balance
p701
sa(dp702
g137
F35
sg138
g158
sg140
Vfirst_length_index
p703
sa(dp704
g137
F37
sg138
g158
sg140
Vavg_stroke_distance
p705
sa(dp706
g137
F38
sg138
Vswim_stroke
p707
sg140
g707
sa(dp708
g137
F39
sg138
g259
sg140
g259
sa(dp709
g137
F40
sg138
g158
sg140
Vnum_active_lengths
p710
sa(dp711
g137
F41
sg138
g251
sg140
Vtotal_work
p712
sa(dp713
g137
F42
sg138
g158
sg140
Vavg_altitude
p714
sa(dp715
g137
F43
sg138
g158
sg140
Vmax_altitude
p716
sa(dp717
g137
F44
sg138
g142
sg140
Vgps_accuracy
p718
sa(dp719
g137
F45
sg138
g381
sg140
Vavg_grade
p720
sa(dp721
g137
F46
sg138
g381
sg140
Vavg_pos_grade
p722
sa(dp723
g137
F47
sg138
g381
sg140
Vavg_neg_grade
p724
sa(dp725
g137
F48
sg138
g381
sg140
Vmax_pos_grade
p726
sa(dp727
g137
F49
sg138
g381
sg140
Vmax_neg_grade
p728
sa(dp729
g137
F50
sg138
g254
sg140
Vavg_temperature
p730
sa(dp731
g137
F51
sg138
g254
sg140
Vmax_temperature
p732
sa(dp733
g137
F52
sg138
g251
sg140
Vtotal_moving_time
p734
sa(dp735
g137
F53
sg138
g381
sg140
Vavg_pos_vertical_speed
p736
sa(dp737
g137
F54
sg138
g381
sg140
Vavg_neg_vertical_speed
p738
sa(dp739
g137
F55
sg138
g381
sg140
Vmax_pos_vertical_speed
p740
sa(dp741
g137
F56
sg138
g381
sg140
Vmax_neg_vertical_speed
p742
sa(dp743
g137
F57
sg138
g251
sg140
Vtime_in_hr_zone
p744
sa(dp745
g137
F58
sg138
g251
sg140
Vtime_in_speed_zone
p746
sa(dp747
g137
F59
sg138
g251
sg140
Vtime_in_cadence_zone
p748
sa(dp749
g137
F60
sg138
g251
sg140
Vtime_in_power_zone
p750
sa(dp751
g137
F61
sg138
g158
sg140
Vrepetition_num
p752
sa(dp753
g137
F62
sg138
g158
sg140
Vmin_altitude
p754
sa(dp755
g137
F63
sg138
g142
sg140
Vmin_heart_rate
p756
sa(dp757
g137
F71
sg138
g139
sg140
Vwkt_step_index
p758
sa(dp759
g137
F74
sg138
g158
sg140
g315
sa(dp760
g137
F75
sg138
g158
sg140
Vstroke_count
p761
sa(dp762
g137
F76
sg138
g158
sg140
Vzone_count
p763
sa(dp764
g137
F77
sg138
g158
sg140
Vavg_vertical_oscillation
p765
sa(dp766
g137
F78
sg138
g158
sg140
Vavg_stance_time_percent
p767
sa(dp768
g137
F79
sg138
g158
sg140
Vavg_stance_time
p769
sa(dp770
g137
F80
sg138
g142
sg140
Vavg_fractional_cadence
p771
sa(dp772
g137
F81
sg138
g142
sg140
Vmax_fractional_cadence
p773
sa(dp774
g137
F82
sg138
g142
sg140
Vtotal_fractional_cycles
p775
sa(dp776
g137
F83
sg138
g158
sg140
Vplayer_score
p777
sa(dp778
g137
F84
sg138
g158
sg140
Vavg_total_hemoglobin_conc
p779
sa(dp780
g137
F85
sg138
g158
sg140
Vmin_total_hemoglobin_conc
p781
sa(dp782
g137
F86
sg138
g158
sg140
Vmax_total_hemoglobin_conc
p783
sa(dp784
g137
F87
sg138
g158
sg140
Vavg_saturated_hemoglobin_percent
p785
sa(dp786
g137
F88
sg138
g158
sg140
Vmin_saturated_hemoglobin_percent
p787
sa(dp788
g137
F89
sg138
g158
sg140
Vmax_saturated_hemoglobin_percent
p789
sa(dp790
g137
F91
sg138
g142
sg140
Vavg_left_torque_effectiveness
p791
sa(dp792
g137
F92
sg138
g142
sg140
Vavg_right_torque_effectiveness
p793
sa(dp794
g137
F93
sg138
g142
sg140
Vavg_left_pedal_smoothness
p795
sa(dp796
g137
F94
sg138
g142
sg140
Vavg_right_pedal_smoothness
p797
sa(dp798
g137
F95
sg138
g142
sg140
Vavg_combined_pedal_smoothness
p799
sa(dp800
g137
F98
sg138
g251
sg140
Vtime_standing
p801
sa(dp802
g137
F99
sg138
g158
sg140
Vstand_count
p803
sa(dp804
g137
F100
sg138
g254
sg140
Vavg_left_pco
p805
sa(dp806
g137
F101
sg138
g254
sg140
Vavg_right_pco
p807
sa(dp808
g137
F102
sg138
g142
sg140
Vavg_left_power_phase
p809
sa(dp810
g137
F103
sg138
g142
sg140
Vavg_left_power_phase_peak
p811
sa(dp812
g137
F104
sg138
g142
sg140
Vavg_right_power_phase
p813
sa(dp814
g137
F105
sg138
g142
sg140
Vavg_right_power_phase_peak
p815
sa(dp816
g137
F106
sg138
g158
sg140
Vavg_power_position
p817
sa(dp818
g137
F107
sg138
g158
sg140
Vmax_power_position
p819
sa(dp820
g137
F108
sg138
g142
sg140
Vavg_cadence_position
p821
sa(dp822
g137
F109
sg138
g142
sg140
Vmax_cadence_position
p823
sa(dp824
g137
F110
sg138
g251
sg140
Venhanced_avg_speed
p825
sa(dp826
g137
F111
sg138
g251
sg140
Venhanced_max_speed
p827
sa(dp828
g137
F112
sg138
g251
sg140
Venhanced_avg_altitude
p829
sa(dp830
g137
F113
sg138
g251
sg140
Venhanced_min_altitude
p831
sa(dp832
g137
F114
sg138
g251
sg140
Venhanced_max_altitude
p833
sa(dp834
g137
F115
sg138
g158
sg140
Vavg_lev_motor_power
p835
sa(dp836
g137
F116
sg138
g158
sg140
Vmax_lev_motor_power
p837
sa(dp838
g137
F117
sg138
g142
sg140
Vlev_battery_consumption
p839
sasVsdm_profile
p840
(lp841
(dp842
g137
F254
sg138
g139
sg140
g139
sa(dp843
g137
F0
sg138
g418
sg140
g428
sa(dp844
g137
F1
sg138
g466
sg140
Vsdm_ant_id
p845
sa(dp846
g137
F2
sg138
g158
sg140
Vsdm_cal_factor
p847
sa(dp848
g137
F3
sg138
g251
sg140
Vodometer
p849
sa(dp850
g137
F4
sg138
g418
sg140
Vspeed_source
p851
sa(dp852
g137
F5
sg138
g317
sg140
Vsdm_ant_id_trans_type
p853
sa(dp854
g137
F7
sg138
g142
sg140
Vodometer_rollover
p855
sasVworkout_step
p856
(lp857
(dp858
g137
F254
sg138
g139
sg140
g139
sa(dp859
g137
F0
sg138
g145
sg140
Vwkt_step_name
p860
sa(dp861
g137
F1
sg138
Vwkt_step_duration
p862
sg140
Vduration_type
p863
sa(dp864
g137
F2
sg138
g251
sg140
Vduration_value
p865
sa(dp866
g137
Fnan
sg138
g251
sg140
Vduration_time
p867
sa(dp868
g137
Fnan
sg138
g251
sg140
Vduration_distance
p869
sa(dp870
g137
Fnan
sg138
Vworkout_hr
p871
sg140
Vduration_hr
p872
sa(dp873
g137
Fnan
sg138
g251
sg140
Vduration_calories
p874
sa(dp875
g137
Fnan
sg138
g251
sg140
Vduration_step
p876
sa(dp877
g137
Fnan
sg138
Vworkout_power
p878
sg140
Vduration_power
p879
sa(dp880
g137
F3
sg138
Vwkt_step_target
p881
sg140
Vtarget_type
p882
sa(dp883
g137
F4
sg138
g251
sg140
g421
sa(dp884
g137
Fnan
sg138
g251
sg140
Vtarget_hr_zone
p885
sa(dp886
g137
Fnan
sg138
g251
sg140
Vtarget_power_zone
p887
sa(dp888
g137
Fnan
sg138
g251
sg140
Vrepeat_steps
p889
sa(dp890
g137
Fnan
sg138
g251
sg140
Vrepeat_time
p891
sa(dp892
g137
Fnan
sg138
g251
sg140
Vrepeat_distance
p893
sa(dp894
g137
Fnan
sg138
g251
sg140
Vrepeat_calories
p895
sa(dp896
g137
Fnan
sg138
g871
sg140
Vrepeat_hr
p897
sa(dp898
g137
Fnan
sg138
g878
sg140
Vrepeat_power
p899
sa(dp900
g137
F5
sg138
g251
sg140
Vcustom_target_value_low
p901
sa(dp902
g137
Fnan
sg138
g251
sg140
Vcustom_target_speed_low
p903
sa(dp904
g137
Fnan
sg138
g871
sg140
Vcustom_target_heart_rate_low
p905
sa(dp906
g137
Fnan
sg138
g251
sg140
Vcustom_target_cadence_low
p907
sa(dp908
g137
Fnan
sg138
g878
sg140
Vcustom_target_power_low
p909
sa(dp910
g137
F6
sg138
g251
sg140
Vcustom_target_value_high
p911
sa(dp912
g137
Fnan
sg138
g251
sg140
Vcustom_target_speed_high
p913
sa(dp914
g137
Fnan
sg138
g871
sg140
Vcustom_target_heart_rate_high
p915
sa(dp916
g137
Fnan
sg138
g251
sg140
Vcustom_target_cadence_high
p917
sa(dp918
g137
Fnan
sg138
g878
sg140
Vcustom_target_power_high
p919
sa(dp920
g137
F7
sg138
g400
sg140
g400
sasVfile_creator
p921
(lp922
(dp923
g137
F0
sg138
g158
sg140
g449
sa(dp924
g137
F1
sg138
g142
sg140
g451
sasVbike_profile
p925
(lp926
(dp927
g137
F254
sg138
g139
sg140
g139
sa(dp928
g137
F0
sg138
g145
sg140
g146
sa(dp929
g137
F1
sg138
g224
sg140
g224
sa(dp930
g137
F2
sg138
g259
sg140
g259
sa(dp931
g137
F3
sg138
g251
sg140
g849
sa(dp932
g137
F4
sg138
g466
sg140
Vbike_spd_ant_id
p933
sa(dp934
g137
F5
sg138
g466
sg140
Vbike_cad_ant_id
p935
sa(dp936
g137
F6
sg138
g466
sg140
Vbike_spdcad_ant_id
p937
sa(dp938
g137
F7
sg138
g466
sg140
Vbike_power_ant_id
p939
sa(dp940
g137
F8
sg138
g158
sg140
Vcustom_wheelsize
p941
sa(dp942
g137
F9
sg138
g158
sg140
Vauto_wheelsize
p943
sa(dp944
g137
F10
sg138
g158
sg140
Vbike_weight
p945
sa(dp946
g137
F11
sg138
g158
sg140
Vpower_cal_factor
p947
sa(dp948
g137
F12
sg138
g418
sg140
Vauto_wheel_cal
p949
sa(dp950
g137
F13
sg138
g418
sg140
Vauto_power_zero
p951
sa(dp952
g137
F14
sg138
g142
sg140
Vid
p953
sa(dp954
g137
F15
sg138
g418
sg140
Vspd_enabled
p955
sa(dp956
g137
F16
sg138
g418
sg140
Vcad_enabled
p957
sa(dp958
g137
F17
sg138
g418
sg140
Vspdcad_enabled
p959
sa(dp960
g137
F18
sg138
g418
sg140
Vpower_enabled
p961
sa(dp962
g137
F19
sg138
g142
sg140
Vcrank_length
p963
sa(dp964
g137
F20
sg138
g418
sg140
g428
sa(dp965
g137
F21
sg138
g317
sg140
Vbike_spd_ant_id_trans_type
p966
sa(dp967
g137
F22
sg138
g317
sg140
Vbike_cad_ant_id_trans_type
p968
sa(dp969
g137
F23
sg138
g317
sg140
Vbike_spdcad_ant_id_trans_type
p970
sa(dp971
g137
F24
sg138
g317
sg140
Vbike_power_ant_id_trans_type
p972
sa(dp973
g137
F37
sg138
g142
sg140
g855
sa(dp974
g137
F38
sg138
g317
sg140
g318
sa(dp975
g137
F39
sg138
g317
sg140
g320
sa(dp976
g137
F40
sg138
g317
sg140
g322
sa(dp977
g137
F41
sg138
g317
sg140
g324
sasVrecord
p978
(lp979
(dp980
g137
F253
sg138
g169
sg140
g170
sa(dp981
g137
F0
sg138
g645
sg140
Vposition_lat
p982
sa(dp983
g137
F1
sg138
g645
sg140
Vposition_long
p984
sa(dp985
g137
F2
sg138
g158
sg140
Valtitude
p986
sa(dp987
g137
F3
sg138
g142
sg140
g212
sa(dp988
g137
F4
sg138
g142
sg140
Vcadence
p989
sa(dp990
g137
F5
sg138
g251
sg140
g359
sa(dp991
g137
F6
sg138
g158
sg140
Vspeed
p992
sa(dp993
g137
F7
sg138
g158
sg140
Vpower
p994
sa(dp995
g137
F8
sg138
g392
sg140
Vcompressed_speed_distance
p996
sa(dp997
g137
F9
sg138
g381
sg140
Vgrade
p998
sa(dp999
g137
F10
sg138
g142
sg140
Vresistance
p1000
sa(dp1001
g137
F11
sg138
g645
sg140
Vtime_from_course
p1002
sa(dp1003
g137
F12
sg138
g142
sg140
Vcycle_length
p1004
sa(dp1005
g137
F13
sg138
g254
sg140
g382
sa(dp1006
g137
F17
sg138
g142
sg140
Vspeed_1s
p1007
sa(dp1008
g137
F18
sg138
g142
sg140
g361
sa(dp1009
g137
F19
sg138
g251
sg140
g660
sa(dp1010
g137
F28
sg138
g158
sg140
Vcompressed_accumulated_power
p1011
sa(dp1012
g137
F29
sg138
g251
sg140
Vaccumulated_power
p1013
sa(dp1014
g137
F30
sg138
g701
sg140
g701
sa(dp1015
g137
F31
sg138
g142
sg140
g718
sa(dp1016
g137
F32
sg138
g381
sg140
Vvertical_speed
p1017
sa(dp1018
g137
F33
sg138
g158
sg140
g235
sa(dp1019
g137
F39
sg138
g158
sg140
Vvertical_oscillation
p1020
sa(dp1021
g137
F40
sg138
g158
sg140
Vstance_time_percent
p1022
sa(dp1023
g137
F41
sg138
g158
sg140
Vstance_time
p1024
sa(dp1025
g137
F42
sg138
g175
sg140
g175
sa(dp1026
g137
F43
sg138
g142
sg140
Vleft_torque_effectiveness
p1027
sa(dp1028
g137
F44
sg138
g142
sg140
Vright_torque_effectiveness
p1029
sa(dp1030
g137
F45
sg138
g142
sg140
Vleft_pedal_smoothness
p1031
sa(dp1032
g137
F46
sg138
g142
sg140
Vright_pedal_smoothness
p1033
sa(dp1034
g137
F47
sg138
g142
sg140
Vcombined_pedal_smoothness
p1035
sa(dp1036
g137
F48
sg138
g142
sg140
Vtime128
p1037
sa(dp1038
g137
F49
sg138
Vstroke_type
p1039
sg140
g1039
sa(dp1040
g137
F50
sg138
g142
sg140
Vzone
p1041
sa(dp1042
g137
F51
sg138
g158
sg140
Vball_speed
p1043
sa(dp1044
g137
F52
sg138
g158
sg140
Vcadence256
p1045
sa(dp1046
g137
F53
sg138
g142
sg140
Vfractional_cadence
p1047
sa(dp1048
g137
F54
sg138
g158
sg140
Vtotal_hemoglobin_conc
p1049
sa(dp1050
g137
F55
sg138
g158
sg140
Vtotal_hemoglobin_conc_min
p1051
sa(dp1052
g137
F56
sg138
g158
sg140
Vtotal_hemoglobin_conc_max
p1053
sa(dp1054
g137
F57
sg138
g158
sg140
Vsaturated_hemoglobin_percent
p1055
sa(dp1056
g137
F58
sg138
g158
sg140
Vsaturated_hemoglobin_percent_min
p1057
sa(dp1058
g137
F59
sg138
g158
sg140
Vsaturated_hemoglobin_percent_max
p1059
sa(dp1060
g137
F62
sg138
g356
sg140
g356
sa(dp1061
g137
F67
sg138
g254
sg140
Vleft_pco
p1062
sa(dp1063
g137
F68
sg138
g254
sg140
Vright_pco
p1064
sa(dp1065
g137
F69
sg138
g142
sg140
Vleft_power_phase
p1066
sa(dp1067
g137
F70
sg138
g142
sg140
Vleft_power_phase_peak
p1068
sa(dp1069
g137
F71
sg138
g142
sg140
Vright_power_phase
p1070
sa(dp1071
g137
F72
sg138
g142
sg140
Vright_power_phase_peak
p1072
sa(dp1073
g137
F73
sg138
g251
sg140
Venhanced_speed
p1074
sa(dp1075
g137
F78
sg138
g251
sg140
Venhanced_altitude
p1076
sa(dp1077
g137
F81
sg138
g142
sg140
Vbattery_soc
p1078
sa(dp1079
g137
F82
sg138
g158
sg140
Vmotor_power
p1080
sasVlength
p1081
(lp1082
(dp1083
g137
F254
sg138
g139
sg140
g139
sa(dp1084
g137
F253
sg138
g169
sg140
g170
sa(dp1085
g137
F0
sg138
g261
sg140
g261
sa(dp1086
g137
F1
sg138
g266
sg140
g266
sa(dp1087
g137
F2
sg138
g169
sg140
g643
sa(dp1088
g137
F3
sg138
g251
sg140
g654
sa(dp1089
g137
F4
sg138
g251
sg140
g656
sa(dp1090
g137
F5
sg138
g158
sg140
Vtotal_strokes
p1091
sa(dp1092
g137
F6
sg138
g158
sg140
g668
sa(dp1093
g137
F7
sg138
g707
sg140
g707
sa(dp1094
g137
F9
sg138
g142
sg140
Vavg_swimming_cadence
p1095
sa(dp1096
g137
F10
sg138
g142
sg140
g311
sa(dp1097
g137
F11
sg138
g158
sg140
g664
sa(dp1098
g137
F12
sg138
Vlength_type
p1099
sg140
g1099
sa(dp1100
g137
F18
sg138
g158
sg140
g777
sa(dp1101
g137
F19
sg138
g158
sg140
g315
sa(dp1102
g137
F20
sg138
g158
sg140
g761
sa(dp1103
g137
F21
sg138
g158
sg140
g763
sasVsession
p1104
(lp1105
(dp1106
g137
F254
sg138
g139
sg140
g139
sa(dp1107
g137
F253
sg138
g169
sg140
g170
sa(dp1108
g137
F0
sg138
g261
sg140
g261
sa(dp1109
g137
F1
sg138
g266
sg140
g266
sa(dp1110
g137
F2
sg138
g169
sg140
g643
sa(dp1111
g137
F3
sg138
g645
sg140
g646
sa(dp1112
g137
F4
sg138
g645
sg140
g648
sa(dp1113
g137
F5
sg138
g224
sg140
g224
sa(dp1114
g137
F6
sg138
g259
sg140
g259
sa(dp1115
g137
F7
sg138
g251
sg140
g654
sa(dp1116
g137
F8
sg138
g251
sg140
g656
sa(dp1117
g137
F9
sg138
g251
sg140
g658
sa(dp1118
g137
F10
sg138
g251
sg140
g660
sa(dp1119
g137
Fnan
sg138
g251
sg140
g662
sa(dp1120
g137
F11
sg138
g158
sg140
g664
sa(dp1121
g137
F13
sg138
g158
sg140
g666
sa(dp1122
g137
F14
sg138
g158
sg140
g668
sa(dp1123
g137
F15
sg138
g158
sg140
g670
sa(dp1124
g137
F16
sg138
g142
sg140
g672
sa(dp1125
g137
F17
sg138
g142
sg140
g185
sa(dp1126
g137
F18
sg138
g142
sg140
g675
sa(dp1127
g137
Fnan
sg138
g142
sg140
g677
sa(dp1128
g137
F19
sg138
g142
sg140
g679
sa(dp1129
g137
Fnan
sg138
g142
sg140
g681
sa(dp1130
g137
F20
sg138
g158
sg140
g683
sa(dp1131
g137
F21
sg138
g158
sg140
g685
sa(dp1132
g137
F22
sg138
g158
sg140
g687
sa(dp1133
g137
F23
sg138
g158
sg140
g689
sa(dp1134
g137
F24
sg138
g142
sg140
Vtotal_training_effect
p1135
sa(dp1136
g137
F25
sg138
g158
sg140
Vfirst_lap_index
p1137
sa(dp1138
g137
F26
sg138
g158
sg140
Vnum_laps
p1139
sa(dp1140
g137
F27
sg138
g142
sg140
g311
sa(dp1141
g137
F28
sg138
Vsession_trigger
p1142
sg140
Vtrigger
p1143
sa(dp1144
g137
F29
sg138
g645
sg140
Vnec_lat
p1145
sa(dp1146
g137
F30
sg138
g645
sg140
Vnec_long
p1147
sa(dp1148
g137
F31
sg138
g645
sg140
Vswc_lat
p1149
sa(dp1150
g137
F32
sg138
g645
sg140
Vswc_long
p1151
sa(dp1152
g137
F34
sg138
g158
sg140
g698
sa(dp1153
g137
F35
sg138
g158
sg140
Vtraining_stress_score
p1154
sa(dp1155
g137
F36
sg138
g158
sg140
Vintensity_factor
p1156
sa(dp1157
g137
F37
sg138
g700
sg140
g701
sa(dp1158
g137
F41
sg138
g251
sg140
Vavg_stroke_count
p1159
sa(dp1160
g137
F42
sg138
g158
sg140
g705
sa(dp1161
g137
F43
sg138
g707
sg140
g707
sa(dp1162
g137
F44
sg138
g158
sg140
Vpool_length
p1163
sa(dp1164
g137
F45
sg138
g158
sg140
Vthreshold_power
p1165
sa(dp1166
g137
F46
sg138
g540
sg140
Vpool_length_unit
p1167
sa(dp1168
g137
F47
sg138
g158
sg140
g710
sa(dp1169
g137
F48
sg138
g251
sg140
g712
sa(dp1170
g137
F49
sg138
g158
sg140
g714
sa(dp1171
g137
F50
sg138
g158
sg140
g716
sa(dp1172
g137
F51
sg138
g142
sg140
g718
sa(dp1173
g137
F52
sg138
g381
sg140
g720
sa(dp1174
g137
F53
sg138
g381
sg140
g722
sa(dp1175
g137
F54
sg138
g381
sg140
g724
sa(dp1176
g137
F55
sg138
g381
sg140
g726
sa(dp1177
g137
F56
sg138
g381
sg140
g728
sa(dp1178
g137
F57
sg138
g254
sg140
g730
sa(dp1179
g137
F58
sg138
g254
sg140
g732
sa(dp1180
g137
F59
sg138
g251
sg140
g734
sa(dp1181
g137
F60
sg138
g381
sg140
g736
sa(dp1182
g137
F61
sg138
g381
sg140
g738
sa(dp1183
g137
F62
sg138
g381
sg140
g740
sa(dp1184
g137
F63
sg138
g381
sg140
g742
sa(dp1185
g137
F64
sg138
g142
sg140
g756
sa(dp1186
g137
F65
sg138
g251
sg140
g744
sa(dp1187
g137
F66
sg138
g251
sg140
g746
sa(dp1188
g137
F67
sg138
g251
sg140
g748
sa(dp1189
g137
F68
sg138
g251
sg140
g750
sa(dp1190
g137
F69
sg138
g251
sg140
Vavg_lap_time
p1191
sa(dp1192
g137
F70
sg138
g158
sg140
Vbest_lap_index
p1193
sa(dp1194
g137
F71
sg138
g158
sg140
g754
sa(dp1195
g137
F82
sg138
g158
sg140
g777
sa(dp1196
g137
F83
sg138
g158
sg140
g315
sa(dp1197
g137
F84
sg138
g145
sg140
Vopponent_name
p1198
sa(dp1199
g137
F85
sg138
g158
sg140
g761
sa(dp1200
g137
F86
sg138
g158
sg140
g763
sa(dp1201
g137
F87
sg138
g158
sg140
Vmax_ball_speed
p1202
sa(dp1203
g137
F88
sg138
g158
sg140
Vavg_ball_speed
p1204
sa(dp1205
g137
F89
sg138
g158
sg140
g765
sa(dp1206
g137
F90
sg138
g158
sg140
g767
sa(dp1207
g137
F91
sg138
g158
sg140
g769
sa(dp1208
g137
F92
sg138
g142
sg140
g771
sa(dp1209
g137
F93
sg138
g142
sg140
g773
sa(dp1210
g137
F94
sg138
g142
sg140
g775
sa(dp1211
g137
F95
sg138
g158
sg140
g779
sa(dp1212
g137
F96
sg138
g158
sg140
g781
sa(dp1213
g137
F97
sg138
g158
sg140
g783
sa(dp1214
g137
F98
sg138
g158
sg140
g785
sa(dp1215
g137
F99
sg138
g158
sg140
g787
sa(dp1216
g137
F100
sg138
g158
sg140
g789
sa(dp1217
g137
F101
sg138
g142
sg140
g791
sa(dp1218
g137
F102
sg138
g142
sg140
g793
sa(dp1219
g137
F103
sg138
g142
sg140
g795
sa(dp1220
g137
F104
sg138
g142
sg140
g797
sa(dp1221
g137
F105
sg138
g142
sg140
g799
sa(dp1222
g137
F111
sg138
g142
sg140
g499
sa(dp1223
g137
F112
sg138
g251
sg140
g801
sa(dp1224
g137
F113
sg138
g158
sg140
g803
sa(dp1225
g137
F114
sg138
g254
sg140
g805
sa(dp1226
g137
F115
sg138
g254
sg140
g807
sa(dp1227
g137
F116
sg138
g142
sg140
g809
sa(dp1228
g137
F117
sg138
g142
sg140
g811
sa(dp1229
g137
F118
sg138
g142
sg140
g813
sa(dp1230
g137
F119
sg138
g142
sg140
g815
sa(dp1231
g137
F120
sg138
g158
sg140
g817
sa(dp1232
g137
F121
sg138
g158
sg140
g819
sa(dp1233
g137
F122
sg138
g142
sg140
g821
sa(dp1234
g137
F123
sg138
g142
sg140
g823
sa(dp1235
g137
F124
sg138
g251
sg140
g825
sa(dp1236
g137
F125
sg138
g251
sg140
g827
sa(dp1237
g137
F126
sg138
g251
sg140
g829
sa(dp1238
g137
F127
sg138
g251
sg140
g831
sa(dp1239
g137
F128
sg138
g251
sg140
g833
sa(dp1240
g137
F129
sg138
g158
sg140
g835
sa(dp1241
g137
F130
sg138
g158
sg140
g837
sa(dp1242
g137
F131
sg138
g142
sg140
g839
sasVactivity
p1243
(lp1244
(dp1245
g137
F253
sg138
g169
sg140
g170
sa(dp1246
g137
F0
sg138
g251
sg140
g656
sa(dp1247
g137
F1
sg138
g158
sg140
Vnum_sessions
p1248
sa(dp1249
g137
F2
sg138
g1243
sg140
g334
sa(dp1250
g137
F3
sg138
g261
sg140
g261
sa(dp1251
g137
F4
sg138
g266
sg140
g266
sa(dp1252
g137
F5
sg138
g172
sg140
g173
sa(dp1253
g137
F6
sg138
g142
sg140
g311
sasVcourse_point
p1254
(lp1255
(dp1256
g137
F254
sg138
g139
sg140
g139
sa(dp1257
g137
F1
sg138
g169
sg140
g170
sa(dp1258
g137
F2
sg138
g645
sg140
g982
sa(dp1259
g137
F3
sg138
g645
sg140
g984
sa(dp1260
g137
F4
sg138
g251
sg140
g359
sa(dp1261
g137
F5
sg138
g1254
sg140
g334
sa(dp1262
g137
F6
sg138
g145
sg140
g146
sasVhrm_profile
p1263
(lp1264
(dp1265
g137
F254
sg138
g139
sg140
g139
sa(dp1266
g137
F0
sg138
g418
sg140
g428
sa(dp1267
g137
F1
sg138
g466
sg140
Vhrm_ant_id
p1268
sa(dp1269
g137
F2
sg138
g418
sg140
Vlog_hrv
p1270
sa(dp1271
g137
F3
sg138
g317
sg140
Vhrm_ant_id_trans_type
p1272
sasVsoftware
p1273
(lp1274
(dp1275
g137
F254
sg138
g139
sg140
g139
sa(dp1276
g137
F3
sg138
g158
sg140
Vversion
p1277
sa(dp1278
g137
F5
sg138
g145
sg140
Vpart_number
p1279
sassS'types'
p1280
(dp1281
g4
(dp1282
I0
(dp1283
S'Type Name'
p1284
Fnan
sS'Value Name'
p1285
Vtime
p1286
sS'Base Type'
p1287
Fnan
sS'Value'
p1288
I0
ssI1
(dp1289
g1284
Fnan
sg1285
Vdistance
p1290
sg1287
Fnan
sg1288
I1
ssI2
(dp1291
g1284
Fnan
sg1285
Vposition_start
p1292
sg1287
Fnan
sg1288
I2
ssI3
(dp1293
g1284
Fnan
sg1285
Vposition_lap
p1294
sg1287
Fnan
sg1288
I3
ssI4
(dp1295
g1284
Fnan
sg1285
Vposition_waypoint
p1296
sg1287
Fnan
sg1288
I4
ssI5
(dp1297
g1284
Fnan
sg1285
Vposition_marked
p1298
sg1287
Fnan
sg1288
I5
ssI6
(dp1299
g1284
Fnan
sg1285
Voff
p1300
sg1287
Fnan
sg1288
I6
sssg6
(dp1301
I128
(dp1302
g1284
Fnan
sg1285
Vright
p1303
sg1287
Fnan
sg1288
V0x80
p1304
ssI127
(dp1305
g1284
Fnan
sg1285
Vmask
p1306
sg1287
Fnan
sg1288
V0x7F
p1307
sssg8
(dp1308
I32
(dp1309
g1284
Fnan
sg1285
Vtcx
p1310
sg1287
Fnan
sg1288
V0x00000020
p1311
ssI1
(dp1312
g1284
Fnan
sg1285
Vinterval
p1313
sg1287
Fnan
sg1288
V0x00000001
p1314
ssI2
(dp1315
g1284
Fnan
sg1285
Vcustom
p1316
sg1287
Fnan
sg1288
V0x00000002
p1317
ssI4096
(dp1318
g1284
Fnan
sg1285
Vgrade
p1319
sg1287
Fnan
sg1288
V0x00001000
p1320
ssI4
(dp1321
g1284
Fnan
sg1285
Vfitness_equipment
p1322
sg1287
Fnan
sg1288
V0x00000004
p1323
ssI1024
(dp1324
g1284
Fnan
sg1285
Vcadence
p1325
sg1287
Fnan
sg1288
V0x00000400
p1326
ssI8192
(dp1327
g1284
Fnan
sg1285
Vresistance
p1328
sg1287
Fnan
sg1288
V0x00002000
p1329
ssI8
(dp1330
g1284
Fnan
sg1285
Vfirstbeat
p1331
sg1287
Fnan
sg1288
V0x00000008
p1332
ssI128
(dp1333
g1284
Fnan
sg1285
Vspeed
p1334
sg1287
Fnan
sg1288
V0x00000080
p1335
ssI256
(dp1336
g1284
Fnan
sg1285
Vheart_rate
p1337
sg1287
Fnan
sg1288
V0x00000100
p1338
ssI16384
(dp1339
g1284
Fnan
sg1285
Vprotected
p1340
sg1287
Fnan
sg1288
V0x00004000
p1341
ssI16
(dp1342
g1284
Fnan
sg1285
Vnew_leaf
p1343
sg1287
Fnan
sg1288
V0x00000010
p1344
ssI512
(dp1345
g1284
Fnan
sg1285
g1290
sg1287
Fnan
sg1288
V0x00000200
p1346
ssI2048
(dp1347
g1284
Fnan
sg1285
Vpower
p1348
sg1287
Fnan
sg1288
V0x00000800
p1349
sssg10
(dp1350
I0
(dp1351
g1284
Fnan
sg1285
Vmanual
p1352
sg1287
Fnan
sg1288
I0
ssI1
(dp1353
g1284
Fnan
sg1285
g1286
sg1287
Fnan
sg1288
I1
ssI2
(dp1354
g1284
Fnan
sg1285
g1290
sg1287
Fnan
sg1288
I2
ssI3
(dp1355
g1284
Fnan
sg1285
g1292
sg1287
Fnan
sg1288
I3
ssI4
(dp1356
g1284
Fnan
sg1285
g1294
sg1287
Fnan
sg1288
I4
ssI5
(dp1357
g1284
Fnan
sg1285
g1296
sg1287
Fnan
sg1288
I5
ssI6
(dp1358
g1284
Fnan
sg1285
g1298
sg1287
Fnan
sg1288
I6
ssI7
(dp1359
g1284
Fnan
sg1285
Vsession_end
p1360
sg1287
Fnan
sg1288
I7
ssI8
(dp1361
g1284
Fnan
sg1285
g1322
sg1287
Fnan
sg1288
I8
sssg12
(dp1362
I32
(dp1363
g1284
Fnan
sg1285
g1337
sg1287
Fnan
sg1288
g1311
ssI1
(dp1364
g1284
Fnan
sg1285
Vprocessed
p1365
sg1287
Fnan
sg1288
g1314
ssI2
(dp1366
g1284
Fnan
sg1285
Vvalid
p1367
sg1287
Fnan
sg1288
g1317
ssI4
(dp1368
g1284
Fnan
sg1285
g1286
sg1287
Fnan
sg1288
g1323
ssI8
(dp1369
g1284
Fnan
sg1285
g1290
sg1287
Fnan
sg1288
g1332
ssI64
(dp1370
g1284
Fnan
sg1285
g1348
sg1287
Fnan
sg1288
V0x00000040
p1371
ssI128
(dp1372
g1284
Fnan
sg1285
g1325
sg1287
Fnan
sg1288
g1335
ssI256
(dp1373
g1284
Fnan
sg1285
Vtraining
p1374
sg1287
Fnan
sg1288
g1338
ssI16
(dp1375
g1284
Fnan
sg1285
Vposition
p1376
sg1287
Fnan
sg1288
g1344
ssI512
(dp1377
g1284
Fnan
sg1285
Vnavigation
p1378
sg1287
Fnan
sg1288
g1346
sssg14
(dp1379
I0
(dp1380
g1284
Fnan
sg1285
Vactivity_end
p1381
sg1287
Fnan
sg1288
I0
ssI1
(dp1382
g1284
Fnan
sg1285
g1352
sg1287
Fnan
sg1288
I1
ssI2
(dp1383
g1284
Fnan
sg1285
Vauto_multi_sport
p1384
sg1287
Fnan
sg1288
I2
ssI3
(dp1385
g1284
Fnan
sg1285
g1322
sg1287
Fnan
sg1288
I3
sssg16
(dp1386
I8
(dp1387
g1284
Fnan
sg1285
Verase
p1388
sg1287
Fnan
sg1288
V0x08
p1389
ssI2
(dp1390
g1284
Fnan
sg1285
Vread
p1391
sg1287
Fnan
sg1288
V0x02
p1392
ssI4
(dp1393
g1284
Fnan
sg1285
Vwrite
p1394
sg1287
Fnan
sg1288
V0x04
p1395
sssg18
(dp1396
I32768
(dp1397
g1284
Fnan
sg1285
g1303
sg1287
Fnan
sg1288
V0x8000
p1398
ssI16383
(dp1399
g1284
Fnan
sg1285
g1306
sg1287
Fnan
sg1288
V0x3FFF
p1400
sssg20
(dp1401
I0
(dp1402
g1284
Fnan
sg1285
Vgeneric
p1403
sg1287
Fnan
sg1288
I0
ssI1
(dp1404
g1284
Fnan
sg1285
Vtreadmill
p1405
sg1287
Fnan
sg1288
I1
ssI2
(dp1406
g1284
Fnan
sg1285
Vstreet
p1407
sg1287
Fnan
sg1288
I2
ssI3
(dp1408
g1284
Fnan
sg1285
Vtrail
p1409
sg1287
Fnan
sg1288
I3
ssI4
(dp1410
g1284
Fnan
sg1285
Vtrack
p1411
sg1287
Fnan
sg1288
I4
ssI5
(dp1412
g1284
Fnan
sg1285
Vspin
p1413
sg1287
Fnan
sg1288
I5
ssI6
(dp1414
g1284
Fnan
sg1285
Vindoor_cycling
p1415
sg1287
Fnan
sg1288
I6
ssI7
(dp1416
g1284
Fnan
sg1285
Vroad
p1417
sg1287
Fnan
sg1288
I7
ssI8
(dp1418
g1284
Fnan
sg1285
Vmountain
p1419
sg1287
Fnan
sg1288
I8
ssI9
(dp1420
g1284
Fnan
sg1285
Vdownhill
p1421
sg1287
Fnan
sg1288
I9
ssI10
(dp1422
g1284
Fnan
sg1285
Vrecumbent
p1423
sg1287
Fnan
sg1288
I10
ssI11
(dp1424
g1284
Fnan
sg1285
Vcyclocross
p1425
sg1287
Fnan
sg1288
I11
ssI12
(dp1426
g1284
Fnan
sg1285
Vhand_cycling
p1427
sg1287
Fnan
sg1288
I12
ssI13
(dp1428
g1284
Fnan
sg1285
Vtrack_cycling
p1429
sg1287
Fnan
sg1288
I13
ssI14
(dp1430
g1284
Fnan
sg1285
Vindoor_rowing
p1431
sg1287
Fnan
sg1288
I14
ssI15
(dp1432
g1284
Fnan
sg1285
Velliptical
p1433
sg1287
Fnan
sg1288
I15
ssI16
(dp1434
g1284
Fnan
sg1285
Vstair_climbing
p1435
sg1287
Fnan
sg1288
I16
ssI17
(dp1436
g1284
Fnan
sg1285
Vlap_swimming
p1437
sg1287
Fnan
sg1288
I17
ssI18
(dp1438
g1284
Fnan
sg1285
Vopen_water
p1439
sg1287
Fnan
sg1288
I18
ssI19
(dp1440
g1284
Fnan
sg1285
Vflexibility_training
p1441
sg1287
Fnan
sg1288
I19
ssI20
(dp1442
g1284
Fnan
sg1285
Vstrength_training
p1443
sg1287
Fnan
sg1288
I20
ssI21
(dp1444
g1284
Fnan
sg1285
Vwarm_up
p1445
sg1287
Fnan
sg1288
I21
ssI22
(dp1446
g1284
Fnan
sg1285
Vmatch
p1447
sg1287
Fnan
sg1288
I22
ssI23
(dp1448
g1284
Fnan
sg1285
Vexercise
p1449
sg1287
Fnan
sg1288
I23
ssI24
(dp1450
g1284
Fnan
sg1285
Vchallenge
p1451
sg1287
Fnan
sg1288
I24
ssI25
(dp1452
g1284
Fnan
sg1285
Vindoor_skiing
p1453
sg1287
Fnan
sg1288
I25
ssI26
(dp1454
g1284
Fnan
sg1285
Vcardio_training
p1455
sg1287
Fnan
sg1288
I26
ssI27
(dp1456
g1284
Fnan
sg1285
Vindoor_walking
p1457
sg1287
Fnan
sg1288
I27
ssI28
(dp1458
g1284
Fnan
sg1285
Ve_bike_fitness
p1459
sg1287
Fnan
sg1288
I28
ssI254
(dp1460
g1284
Fnan
sg1285
Vall
p1461
sg1287
Fnan
sg1288
I254
sssg22
(dp1462
I0
(dp1463
g1284
Fnan
sg1285
Vnum_per_file
p1464
sg1287
Fnan
sg1288
I0
ssI1
(dp1465
g1284
Fnan
sg1285
Vmax_per_file
p1466
sg1287
Fnan
sg1288
I1
ssI2
(dp1467
g1284
Fnan
sg1285
Vmax_per_file_type
p1468
sg1287
Fnan
sg1288
I2
sssg24
(dp1469
I0
(dp1470
g1284
Fnan
sg1285
Vcreator
p1471
sg1287
Fnan
sg1288
I0
sssg26
(dp1472
I32
(dp1473
g1284
Fnan
sg1285
Vswimming
p1474
sg1287
Fnan
sg1288
V0x20
p1475
ssI1
(dp1476
g1284
Fnan
sg1285
g1403
sg1287
Fnan
sg1288
V0x01
p1477
ssI2
(dp1478
g1284
Fnan
sg1285
Vrunning
p1479
sg1287
Fnan
sg1288
g1392
ssI4
(dp1480
g1284
Fnan
sg1285
Vcycling
p1481
sg1287
Fnan
sg1288
g1395
ssI8
(dp1482
g1284
Fnan
sg1285
Vtransition
p1483
sg1287
Fnan
sg1288
g1389
ssI64
(dp1484
g1284
Fnan
sg1285
Vbasketball
p1485
sg1287
Fnan
sg1288
V0x40
p1486
ssI128
(dp1487
g1284
Fnan
sg1285
Vsoccer
p1488
sg1287
Fnan
sg1288
g1304
ssI16
(dp1489
g1284
Fnan
sg1285
g1322
sg1287
Fnan
sg1288
V0x10
p1490
sssg28
(dp1491
I32
(dp1492
g1284
Fnan
sg1285
Valpine_skiing
p1493
sg1287
Fnan
sg1288
g1475
ssI1
(dp1494
g1284
Fnan
sg1285
Vtennis
p1495
sg1287
Fnan
sg1288
g1477
ssI2
(dp1496
g1284
Fnan
sg1285
Vamerican_football
p1497
sg1287
Fnan
sg1288
g1392
ssI4
(dp1498
g1284
Fnan
sg1285
g1374
sg1287
Fnan
sg1288
g1395
ssI8
(dp1499
g1284
Fnan
sg1285
Vwalking
p1500
sg1287
Fnan
sg1288
g1389
ssI64
(dp1501
g1284
Fnan
sg1285
Vsnowboarding
p1502
sg1287
Fnan
sg1288
g1486
ssI128
(dp1503
g1284
Fnan
sg1285
Vrowing
p1504
sg1287
Fnan
sg1288
g1304
ssI16
(dp1505
g1284
Fnan
sg1285
Vcross_country_skiing
p1506
sg1287
Fnan
sg1288
g1490
sssg30
(dp1507
I32
(dp1508
g1284
Fnan
sg1285
Ve_biking
p1509
sg1287
Fnan
sg1288
g1475
ssI1
(dp1510
g1284
Fnan
sg1285
Vmountaineering
p1511
sg1287
Fnan
sg1288
g1477
ssI2
(dp1512
g1284
Fnan
sg1285
Vhiking
p1513
sg1287
Fnan
sg1288
g1392
ssI4
(dp1514
g1284
Fnan
sg1285
Vmultisport
p1515
sg1287
Fnan
sg1288
g1395
ssI8
(dp1516
g1284
Fnan
sg1285
Vpaddling
p1517
sg1287
Fnan
sg1288
g1389
ssI16
(dp1518
g1284
Fnan
sg1285
Vflying
p1519
sg1287
Fnan
sg1288
g1490
sssg32
(dp1520
I0
(dp1521
g1284
Fnan
sg1285
g1352
sg1287
Fnan
sg1288
I0
ssI1
(dp1522
g1284
Fnan
sg1285
Vauto
p1523
sg1287
Fnan
sg1288
I1
ssI2
(dp1524
g1284
Fnan
sg1285
g1322
sg1287
Fnan
sg1288
I2
sssg34
(dp1525
I0
(dp1526
g1284
Fnan
sg1285
Vready
p1527
sg1287
Fnan
sg1288
I0
ssI1
(dp1528
g1284
Fnan
sg1285
Vin_use
p1529
sg1287
Fnan
sg1288
I1
ssI2
(dp1530
g1284
Fnan
sg1285
Vpaused
p1531
sg1287
Fnan
sg1288
I2
ssI3
(dp1532
g1284
Fnan
sg1285
Vunknown
p1533
sg1287
Fnan
sg1288
I3
sssg36
(dp1534
I0
(dp1535
g1284
Fnan
sg1285
Vlow
p1536
sg1287
Fnan
sg1288
I0
ssI1
(dp1537
g1284
Fnan
sg1285
Vmedium
p1538
sg1287
Fnan
sg1288
I1
ssI2
(dp1539
g1284
Fnan
sg1285
Vhigh
p1540
sg1287
Fnan
sg1288
I2
sssg38
(dp1541
I0
(dp1542
g1284
Fnan
sg1285
Vclear
p1543
sg1287
Fnan
sg1288
I0
ssI1
(dp1544
g1284
Fnan
sg1285
Vok
p1545
sg1287
Fnan
sg1288
I1
sssg40
(dp1546
I0
(dp1547
g1284
Fnan
sg1285
Vseated
p1548
sg1287
Fnan
sg1288
I0
ssI1
(dp1549
g1284
Fnan
sg1285
Vstanding
p1550
sg1287
Fnan
sg1288
I1
sssg42
(dp1551
I1
(dp1552
g1284
Fnan
sg1285
Vhrm1
p1553
sg1287
Fnan
sg1288
I1
ssI2
(dp1554
g1284
Fnan
sg1285
Vaxh01
p1555
sg1287
Fnan
sg1288
I2
ssI3
(dp1556
g1284
Fnan
sg1285
Vaxb01
p1557
sg1287
Fnan
sg1288
I3
ssI4
(dp1558
g1284
Fnan
sg1285
Vaxb02
p1559
sg1287
Fnan
sg1288
I4
ssI5
(dp1560
g1284
Fnan
sg1285
Vhrm2ss
p1561
sg1287
Fnan
sg1288
I5
ssI6
(dp1562
g1284
Fnan
sg1285
Vdsi_alf02
p1563
sg1287
Fnan
sg1288
I6
ssI7
(dp1564
g1284
Fnan
sg1285
Vhrm3ss
p1565
sg1287
Fnan
sg1288
I7
ssI8
(dp1566
g1284
Fnan
sg1285
Vhrm_run_single_byte_product_id
p1567
sg1287
Fnan
sg1288
I8
ssI9
(dp1568
g1284
Fnan
sg1285
Vbsm
p1569
sg1287
Fnan
sg1288
I9
ssI10
(dp1570
g1284
Fnan
sg1285
Vbcm
p1571
sg1287
Fnan
sg1288
I10
ssI1036
(dp1572
g1284
Fnan
sg1285
Vedge500
p1573
sg1287
Fnan
sg1288
I1036
ssI2050
(dp1574
g1284
Fnan
sg1285
Vfenix3
p1575
sg1287
Fnan
sg1288
I2050
ssI1551
(dp1576
g1284
Fnan
sg1285
Vfenix
p1577
sg1287
Fnan
sg1288
I1551
ssI1555
(dp1578
g1284
Fnan
sg1285
Vedge200_taiwan
p1579
sg1287
Fnan
sg1288
I1555
ssI1561
(dp1580
g1284
Fnan
sg1285
Vedge510
p1581
sg1287
Fnan
sg1288
I1561
ssI1567
(dp1582
g1284
Fnan
sg1285
Vedge810
p1583
sg1287
Fnan
sg1288
I1567
ssI1570
(dp1584
g1284
Fnan
sg1285
Vtempe
p1585
sg1287
Fnan
sg1288
I1570
ssI1600
(dp1586
g1284
Fnan
sg1285
Vfr910xt_japan
p1587
sg1287
Fnan
sg1288
I1600
ssI1537
(dp1588
g1284
Fnan
sg1285
Vfr910xt_china
p1589
sg1287
Fnan
sg1288
I1537
ssI1623
(dp1590
g1284
Fnan
sg1285
Vfr620
p1591
sg1287
Fnan
sg1288
I1623
ssI1632
(dp1592
g1284
Fnan
sg1285
Vfr220
p1593
sg1287
Fnan
sg1288
I1632
ssI1124
(dp1594
g1284
Fnan
sg1285
Vfr110
p1595
sg1287
Fnan
sg1288
I1124
ssI2150
(dp1596
g1284
Fnan
sg1285
Vvivo_fit2
p1597
sg1287
Fnan
sg1288
I2150
ssI1664
(dp1598
g1284
Fnan
sg1285
Vfr910xt_korea
p1599
sg1287
Fnan
sg1288
I1664
ssI10007
(dp1600
g1284
Fnan
sg1285
Vsdm4
p1601
sg1287
Fnan
sg1288
I10007
ssI1169
(dp1602
g1284
Fnan
sg1285
Vedge800
p1603
sg1287
Fnan
sg1288
I1169
ssI20119
(dp1604
g1284
Fnan
sg1285
Vtraining_center
p1605
sg1287
Fnan
sg1288
I20119
ssI1688
(dp1606
g1284
Fnan
sg1285
Vfr10_japan
p1607
sg1287
Fnan
sg1288
I1688
ssI1199
(dp1608
g1284
Fnan
sg1285
Vedge500_taiwan
p1609
sg1287
Fnan
sg1288
I1199
ssI10014
(dp1610
g1284
Fnan
sg1285
Vedge_remote
p1611
sg1287
Fnan
sg1288
I10014
ssI1721
(dp1612
g1284
Fnan
sg1285
Vedge810_japan
p1613
sg1287
Fnan
sg1288
I1721
ssI1213
(dp1614
g1284
Fnan
sg1285
Vedge500_japan
p1615
sg1287
Fnan
sg1288
I1213
ssI1735
(dp1616
g1284
Fnan
sg1285
Vvirb_elite
p1617
sg1287
Fnan
sg1288
I1735
ssI1736
(dp1618
g1284
Fnan
sg1285
Vedge_touring
p1619
sg1287
Fnan
sg1288
I1736
ssI717
(dp1620
g1284
Fnan
sg1285
Vfr405
p1621
sg1287
Fnan
sg1288
I717
ssI1742
(dp1622
g1284
Fnan
sg1285
Vedge510_japan
p1623
sg1287
Fnan
sg1288
I1742
ssI1752
(dp1624
g1284
Fnan
sg1285
Vhrm_run
p1625
sg1287
Fnan
sg1288
I1752
ssI1765
(dp1626
g1284
Fnan
sg1285
Vfr920xt
p1627
sg1287
Fnan
sg1288
I1765
ssI1274
(dp1628
g1284
Fnan
sg1285
Vfr110_japan
p1629
sg1287
Fnan
sg1288
I1274
ssI1853
(dp1630
g1284
Fnan
sg1285
Vvirb_remote
p1631
sg1287
Fnan
sg1288
I1853
ssI782
(dp1632
g1284
Fnan
sg1285
Vfr50
p1633
sg1287
Fnan
sg1288
I782
ssI1325
(dp1634
g1284
Fnan
sg1285
Vedge200
p1635
sg1287
Fnan
sg1288
I1325
ssI473
(dp1636
g1284
Fnan
sg1285
Vfr301_china
p1637
sg1287
Fnan
sg1288
I473
ssI1821
(dp1638
g1284
Fnan
sg1285
Vedge510_asia
p1639
sg1287
Fnan
sg1288
I1821
ssI1822
(dp1640
g1284
Fnan
sg1285
Vedge810_china
p1641
sg1287
Fnan
sg1288
I1822
ssI1823
(dp1642
g1284
Fnan
sg1285
Vedge810_taiwan
p1643
sg1287
Fnan
sg1288
I1823
ssI987
(dp1644
g1284
Fnan
sg1285
Vfr405_japan
p1645
sg1287
Fnan
sg1288
I987
ssI1836
(dp1646
g1284
Fnan
sg1285
Vedge1000
p1647
sg1287
Fnan
sg1288
I1836
ssI1837
(dp1648
g1284
Fnan
sg1285
Vvivo_fit
p1649
sg1287
Fnan
sg1288
I1837
ssI1328
(dp1650
g1284
Fnan
sg1285
Vfr910xt
p1651
sg1287
Fnan
sg1288
I1328
ssI1333
(dp1652
g1284
Fnan
sg1285
Vedge800_taiwan
p1653
sg1287
Fnan
sg1288
I1333
ssI1334
(dp1654
g1284
Fnan
sg1285
Vedge800_japan
p1655
sg1287
Fnan
sg1288
I1334
ssI1341
(dp1656
g1284
Fnan
sg1285
Valf04
p1657
sg1287
Fnan
sg1288
I1341
ssI1345
(dp1658
g1284
Fnan
sg1285
Vfr610
p1659
sg1287
Fnan
sg1288
I1345
ssI1360
(dp1660
g1284
Fnan
sg1285
Vfr210_japan
p1661
sg1287
Fnan
sg1288
I1360
ssI1885
(dp1662
g1284
Fnan
sg1285
Vvivo_ki
p1663
sg1287
Fnan
sg1288
I1885
ssI1253
(dp1664
g1284
Fnan
sg1285
Vchirp
p1665
sg1287
Fnan
sg1288
I1253
ssI1380
(dp1666
g1284
Fnan
sg1285
Vvector_ss
p1667
sg1287
Fnan
sg1288
I1380
ssI1381
(dp1668
g1284
Fnan
sg1285
Vvector_cp
p1669
sg1287
Fnan
sg1288
I1381
ssI1386
(dp1670
g1284
Fnan
sg1285
Vedge800_china
p1671
sg1287
Fnan
sg1288
I1386
ssI1387
(dp1672
g1284
Fnan
sg1285
Vedge500_china
p1673
sg1287
Fnan
sg1288
I1387
ssI1903
(dp1674
g1284
Fnan
sg1285
Vfr15
p1675
sg1287
Fnan
sg1288
I1903
ssI1907
(dp1676
g1284
Fnan
sg1285
Vvivo_active
p1677
sg1287
Fnan
sg1288
I1907
ssI1918
(dp1678
g1284
Fnan
sg1285
Vedge510_korea
p1679
sg1287
Fnan
sg1288
I1918
ssI1410
(dp1680
g1284
Fnan
sg1285
Vfr610_japan
p1681
sg1287
Fnan
sg1288
I1410
ssI1928
(dp1682
g1284
Fnan
sg1285
Vfr620_japan
p1683
sg1287
Fnan
sg1288
I1928
ssI1929
(dp1684
g1284
Fnan
sg1285
Vfr620_china
p1685
sg1287
Fnan
sg1288
I1929
ssI1930
(dp1686
g1284
Fnan
sg1285
Vfr220_japan
p1687
sg1287
Fnan
sg1288
I1930
ssI1931
(dp1688
g1284
Fnan
sg1285
Vfr220_china
p1689
sg1287
Fnan
sg1288
I1931
ssI1422
(dp1690
g1284
Fnan
sg1285
Vedge500_korea
p1691
sg1287
Fnan
sg1288
I1422
ssI1936
(dp1692
g1284
Fnan
sg1285
Vapproach_s6
p1693
sg1287
Fnan
sg1288
I1936
ssI1436
(dp1694
g1284
Fnan
sg1285
Vfr70
p1695
sg1287
Fnan
sg1288
I1436
ssI1956
(dp1696
g1284
Fnan
sg1285
Vvivo_smart
p1697
sg1287
Fnan
sg1288
I1956
ssI1446
(dp1698
g1284
Fnan
sg1285
Vfr310xt_4t
p1699
sg1287
Fnan
sg1288
I1446
ssI1967
(dp1700
g1284
Fnan
sg1285
Vfenix2
p1701
sg1287
Fnan
sg1288
I1967
ssI1461
(dp1702
g1284
Fnan
sg1285
Vamx
p1703
sg1287
Fnan
sg1288
I1461
ssI1988
(dp1704
g1284
Fnan
sg1285
Vepix
p1705
sg1287
Fnan
sg1288
I1988
ssI1482
(dp1706
g1284
Fnan
sg1285
Vfr10
p1707
sg1287
Fnan
sg1288
I1482
ssI1497
(dp1708
g1284
Fnan
sg1285
Vedge800_korea
p1709
sg1287
Fnan
sg1288
I1497
ssI474
(dp1710
g1284
Fnan
sg1285
Vfr301_japan
p1711
sg1287
Fnan
sg1288
I474
ssI475
(dp1712
g1284
Fnan
sg1285
Vfr301_korea
p1713
sg1287
Fnan
sg1288
I475
ssI988
(dp1714
g1284
Fnan
sg1285
Vfr60
p1715
sg1287
Fnan
sg1288
I988
ssI1499
(dp1716
g1284
Fnan
sg1285
Vswim
p1717
sg1287
Fnan
sg1288
I1499
ssI494
(dp1718
g1284
Fnan
sg1285
Vfr301_taiwan
p1719
sg1287
Fnan
sg1288
I494
ssI1011
(dp1720
g1284
Fnan
sg1285
Vdsi_alf01
p1721
sg1287
Fnan
sg1288
I1011
ssI1018
(dp1722
g1284
Fnan
sg1285
Vfr310xt
p1723
sg1287
Fnan
sg1288
I1018
ssI65532
(dp1724
g1284
Fnan
sg1285
Vandroid_antplus_plugin
p1725
sg1287
Fnan
sg1288
I65532
ssI65534
(dp1726
g1284
Fnan
sg1285
Vconnect
p1727
sg1287
Fnan
sg1288
I65534
sssg44
(dp1728
I0
(dp1729
g1284
Fnan
sg1285
g1316
sg1287
Fnan
sg1288
I0
ssI1
(dp1730
g1284
Fnan
sg1285
Vpercent_max_hr
p1731
sg1287
Fnan
sg1288
I1
ssI2
(dp1732
g1284
Fnan
sg1285
Vpercent_hrr
p1733
sg1287
Fnan
sg1288
I2
sssg46
(dp1734
I268435456
(dp1735
g1284
Fnan
sg1285
Vmin
p1736
sg1287
Fnan
sg1288
V0x10000000
p1737
sssg48
(dp1738
I0
(dp1739
g1284
Fnan
sg1285
Vnormal
p1740
sg1287
Fnan
sg1288
I0
ssI1
(dp1741
g1284
Fnan
sg1285
Virregular
p1742
sg1287
Fnan
sg1288
I1
sssg50
(dp1743
I1000
(dp1744
g1284
Fnan
sg1285
Vwatts_offset
p1745
sg1287
Fnan
sg1288
I1000
sssg52
(dp1746
I0
(dp1747
g1284
Fnan
sg1285
g1403
sg1287
Fnan
sg1288
I0
ssI1
(dp1748
g1284
Fnan
sg1285
g1405
sg1287
Fnan
sg1288
I1
ssI2
(dp1749
g1284
Fnan
sg1285
g1407
sg1287
Fnan
sg1288
I2
ssI3
(dp1750
g1284
Fnan
sg1285
g1409
sg1287
Fnan
sg1288
I3
ssI4
(dp1751
g1284
Fnan
sg1285
g1411
sg1287
Fnan
sg1288
I4
ssI5
(dp1752
g1284
Fnan
sg1285
g1413
sg1287
Fnan
sg1288
I5
ssI6
(dp1753
g1284
Fnan
sg1285
g1415
sg1287
Fnan
sg1288
I6
ssI7
(dp1754
g1284
Fnan
sg1285
g1417
sg1287
Fnan
sg1288
I7
ssI8
(dp1755
g1284
Fnan
sg1285
g1419
sg1287
Fnan
sg1288
I8
ssI9
(dp1756
g1284
Fnan
sg1285
g1421
sg1287
Fnan
sg1288
I9
ssI10
(dp1757
g1284
Fnan
sg1285
g1423
sg1287
Fnan
sg1288
I10
ssI11
(dp1758
g1284
Fnan
sg1285
g1425
sg1287
Fnan
sg1288
I11
ssI12
(dp1759
g1284
Fnan
sg1285
g1427
sg1287
Fnan
sg1288
I12
ssI13
(dp1760
g1284
Fnan
sg1285
g1429
sg1287
Fnan
sg1288
I13
ssI14
(dp1761
g1284
Fnan
sg1285
g1431
sg1287
Fnan
sg1288
I14
ssI15
(dp1762
g1284
Fnan
sg1285
g1433
sg1287
Fnan
sg1288
I15
ssI16
(dp1763
g1284
Fnan
sg1285
g1435
sg1287
Fnan
sg1288
I16
ssI17
(dp1764
g1284
Fnan
sg1285
g1437
sg1287
Fnan
sg1288
I17
ssI18
(dp1765
g1284
Fnan
sg1285
g1439
sg1287
Fnan
sg1288
I18
ssI254
(dp1766
g1284
Fnan
sg1285
g1461
sg1287
Fnan
sg1288
I254
sssg54
(dp1767
I0
(dp1768
g1284
Fnan
sg1285
Vfemale
p1769
sg1287
Fnan
sg1288
I0
ssI1
(dp1770
g1284
Fnan
sg1285
Vmale
p1771
sg1287
Fnan
sg1288
I1
sssg56
(dp1772
I1
(dp1773
g1284
Fnan
sg1285
Vantfs
p1774
sg1287
Fnan
sg1288
I1
ssI121
(dp1775
g1284
Fnan
sg1285
Vbike_speed_cadence
p1776
sg1287
Fnan
sg1288
I121
ssI11
(dp1777
g1284
Fnan
sg1285
Vbike_power
p1778
sg1287
Fnan
sg1288
I11
ssI12
(dp1779
g1284
Fnan
sg1285
Venvironment_sensor_legacy
p1780
sg1287
Fnan
sg1288
I12
ssI15
(dp1781
g1284
Fnan
sg1285
Vmulti_sport_speed_distance
p1782
sg1287
Fnan
sg1288
I15
ssI16
(dp1783
g1284
Fnan
sg1285
Vcontrol
p1784
sg1287
Fnan
sg1288
I16
ssI17
(dp1785
g1284
Fnan
sg1285
g1322
sg1287
Fnan
sg1288
I17
ssI18
(dp1786
g1284
Fnan
sg1285
Vblood_pressure
p1787
sg1287
Fnan
sg1288
I18
ssI19
(dp1788
g1284
Fnan
sg1285
Vgeocache_node
p1789
sg1287
Fnan
sg1288
I19
ssI20
(dp1790
g1284
Fnan
sg1285
Vlight_electric_vehicle
p1791
sg1287
Fnan
sg1288
I20
ssI119
(dp1792
g1284
Fnan
sg1285
Vweight_scale
p1793
sg1287
Fnan
sg1288
I119
ssI120
(dp1794
g1284
Fnan
sg1285
g1337
sg1287
Fnan
sg1288
I120
ssI25
(dp1795
g1284
Fnan
sg1285
Venv_sensor
p1796
sg1287
Fnan
sg1288
I25
ssI26
(dp1797
g1284
Fnan
sg1285
Vracquet
p1798
sg1287
Fnan
sg1288
I26
ssI123
(dp1799
g1284
Fnan
sg1285
Vbike_speed
p1800
sg1287
Fnan
sg1288
I123
ssI124
(dp1801
g1284
Fnan
sg1285
Vstride_speed_distance
p1802
sg1287
Fnan
sg1288
I124
ssI122
(dp1803
g1284
Fnan
sg1285
Vbike_cadence
p1804
sg1287
Fnan
sg1288
I122
sssg58
(dp1805
I0
(dp1806
g1284
Fnan
sg1285
Vno_error
p1807
sg1287
Fnan
sg1288
I0
ssI1
(dp1808
g1284
Fnan
sg1285
Verror_incomplete_data
p1809
sg1287
Fnan
sg1288
I1
ssI2
(dp1810
g1284
Fnan
sg1285
Verror_no_measurement
p1811
sg1287
Fnan
sg1288
I2
ssI3
(dp1812
g1284
Fnan
sg1285
Verror_data_out_of_range
p1813
sg1287
Fnan
sg1288
I3
ssI4
(dp1814
g1284
Fnan
sg1285
Verror_irregular_heart_rate
p1815
sg1287
Fnan
sg1288
I4
sssg60
(dp1816
I1
(dp1817
g1284
Fnan
sg1285
Vnew
p1818
sg1287
Fnan
sg1288
I1
ssI2
(dp1819
g1284
Fnan
sg1285
Vgood
p1820
sg1287
Fnan
sg1288
I2
ssI3
(dp1821
g1284
Fnan
sg1285
g1545
sg1287
Fnan
sg1288
I3
ssI4
(dp1822
g1284
Fnan
sg1285
g1536
sg1287
Fnan
sg1288
I4
ssI5
(dp1823
g1284
Fnan
sg1285
Vcritical
p1824
sg1287
Fnan
sg1288
I5
ssI7
(dp1825
g1284
Fnan
sg1285
g1533
sg1287
Fnan
sg1288
I7
sssg62
(dp1826
I0
(dp1827
g1284
Fnan
sg1285
g1316
sg1287
Fnan
sg1288
I0
ssI1
(dp1828
g1284
Fnan
sg1285
Vpercent_ftp
p1829
sg1287
Fnan
sg1288
I1
sssg64
(dp1830
I100
(dp1831
g1284
Fnan
sg1285
Vbpm_offset
p1832
sg1287
Fnan
sg1288
I100
sssg66
(dp1833
I0
(dp1834
g1284
Fnan
sg1285
g1403
sg1287
Fnan
sg1288
I0
ssI1
(dp1835
g1284
Fnan
sg1285
Vsummit
p1836
sg1287
Fnan
sg1288
I1
ssI2
(dp1837
g1284
Fnan
sg1285
Vvalley
p1838
sg1287
Fnan
sg1288
I2
ssI3
(dp1839
g1284
Fnan
sg1285
Vwater
p1840
sg1287
Fnan
sg1288
I3
ssI4
(dp1841
g1284
Fnan
sg1285
Vfood
p1842
sg1287
Fnan
sg1288
I4
ssI5
(dp1843
g1284
Fnan
sg1285
Vdanger
p1844
sg1287
Fnan
sg1288
I5
ssI6
(dp1845
g1284
Fnan
sg1285
Vleft
p1846
sg1287
Fnan
sg1288
I6
ssI7
(dp1847
g1284
Fnan
sg1285
g1303
sg1287
Fnan
sg1288
I7
ssI8
(dp1848
g1284
Fnan
sg1285
Vstraight
p1849
sg1287
Fnan
sg1288
I8
ssI9
(dp1850
g1284
Fnan
sg1285
Vfirst_aid
p1851
sg1287
Fnan
sg1288
I9
ssI10
(dp1852
g1284
Fnan
sg1285
Vfourth_category
p1853
sg1287
Fnan
sg1288
I10
ssI11
(dp1854
g1284
Fnan
sg1285
Vthird_category
p1855
sg1287
Fnan
sg1288
I11
ssI12
(dp1856
g1284
Fnan
sg1285
Vsecond_category
p1857
sg1287
Fnan
sg1288
I12
ssI13
(dp1858
g1284
Fnan
sg1285
Vfirst_category
p1859
sg1287
Fnan
sg1288
I13
ssI14
(dp1860
g1284
Fnan
sg1285
Vhors_category
p1861
sg1287
Fnan
sg1288
I14
ssI15
(dp1862
g1284
Fnan
sg1285
Vsprint
p1863
sg1287
Fnan
sg1288
I15
ssI16
(dp1864
g1284
Fnan
sg1285
Vleft_fork
p1865
sg1287
Fnan
sg1288
I16
ssI17
(dp1866
g1284
Fnan
sg1285
Vright_fork
p1867
sg1287
Fnan
sg1288
I17
ssI18
(dp1868
g1284
Fnan
sg1285
Vmiddle_fork
p1869
sg1287
Fnan
sg1288
I18
ssI19
(dp1870
g1284
Fnan
sg1285
Vslight_left
p1871
sg1287
Fnan
sg1288
I19
ssI20
(dp1872
g1284
Fnan
sg1285
Vsharp_left
p1873
sg1287
Fnan
sg1288
I20
ssI21
(dp1874
g1284
Fnan
sg1285
Vslight_right
p1875
sg1287
Fnan
sg1288
I21
ssI22
(dp1876
g1284
Fnan
sg1285
Vsharp_right
p1877
sg1287
Fnan
sg1288
I22
ssI23
(dp1878
g1284
Fnan
sg1285
Vu_turn
p1879
sg1287
Fnan
sg1288
I23
sssg68
(dp1880
I0
(dp1881
g1284
Fnan
sg1285
Vno_event
p1882
sg1287
Fnan
sg1288
I0
ssI1
(dp1883
g1284
Fnan
sg1285
Vother
p1884
sg1287
Fnan
sg1288
I1
ssI2
(dp1885
g1284
Fnan
sg1285
Vserve
p1886
sg1287
Fnan
sg1288
I2
ssI3
(dp1887
g1284
Fnan
sg1285
Vforehand
p1888
sg1287
Fnan
sg1288
I3
ssI4
(dp1889
g1284
Fnan
sg1285
Vbackhand
p1890
sg1287
Fnan
sg1288
I4
ssI5
(dp1891
g1284
Fnan
sg1285
Vsmash
p1892
sg1287
Fnan
sg1288
I5
sssg70
(dp1893
I0
(dp1894
g1284
Fnan
sg1285
Vstart
p1895
sg1287
Fnan
sg1288
I0
ssI1
(dp1896
g1284
Fnan
sg1285
Vstop
p1897
sg1287
Fnan
sg1288
I1
ssI2
(dp1898
g1284
Fnan
sg1285
Vconsecutive_depreciated
p1899
sg1287
Fnan
sg1288
I2
ssI3
(dp1900
g1284
Fnan
sg1285
Vmarker
p1901
sg1287
Fnan
sg1288
I3
ssI4
(dp1902
g1284
Fnan
sg1285
Vstop_all
p1903
sg1287
Fnan
sg1288
I4
ssI5
(dp1904
g1284
Fnan
sg1285
Vbegin_depreciated
p1905
sg1287
Fnan
sg1288
I5
ssI6
(dp1906
g1284
Fnan
sg1285
Vend_depreciated
p1907
sg1287
Fnan
sg1288
I6
ssI7
(dp1908
g1284
Fnan
sg1285
Vend_all_depreciated
p1909
sg1287
Fnan
sg1288
I7
ssI8
(dp1910
g1284
Fnan
sg1285
Vstop_disable
p1911
sg1287
Fnan
sg1288
I8
ssI9
(dp1912
g1284
Fnan
sg1285
Vstop_disable_all
p1913
sg1287
Fnan
sg1288
I9
sssg72
(dp1914
I65534
(dp1915
g1284
Fnan
sg1285
Vcalculating
p1916
sg1287
Fnan
sg1288
V0xFFFE
p1917
sssg74
(dp1918
I0
(dp1919
g1284
Fnan
sg1285
Vleft_leg
p1920
sg1287
Fnan
sg1288
I0
ssI1
(dp1921
g1284
Fnan
sg1285
Vleft_calf
p1922
sg1287
Fnan
sg1288
I1
ssI2
(dp1923
g1284
Fnan
sg1285
Vleft_shin
p1924
sg1287
Fnan
sg1288
I2
ssI3
(dp1925
g1284
Fnan
sg1285
Vleft_hamstring
p1926
sg1287
Fnan
sg1288
I3
ssI4
(dp1927
g1284
Fnan
sg1285
Vleft_quad
p1928
sg1287
Fnan
sg1288
I4
ssI5
(dp1929
g1284
Fnan
sg1285
Vleft_glute
p1930
sg1287
Fnan
sg1288
I5
ssI6
(dp1931
g1284
Fnan
sg1285
Vright_leg
p1932
sg1287
Fnan
sg1288
I6
ssI7
(dp1933
g1284
Fnan
sg1285
Vright_calf
p1934
sg1287
Fnan
sg1288
I7
ssI8
(dp1935
g1284
Fnan
sg1285
Vright_shin
p1936
sg1287
Fnan
sg1288
I8
ssI9
(dp1937
g1284
Fnan
sg1285
Vright_hamstring
p1938
sg1287
Fnan
sg1288
I9
ssI10
(dp1939
g1284
Fnan
sg1285
Vright_quad
p1940
sg1287
Fnan
sg1288
I10
ssI11
(dp1941
g1284
Fnan
sg1285
Vright_glute
p1942
sg1287
Fnan
sg1288
I11
ssI12
(dp1943
g1284
Fnan
sg1285
Vtorso_back
p1944
sg1287
Fnan
sg1288
I12
ssI13
(dp1945
g1284
Fnan
sg1285
Vleft_lower_back
p1946
sg1287
Fnan
sg1288
I13
ssI14
(dp1947
g1284
Fnan
sg1285
Vleft_upper_back
p1948
sg1287
Fnan
sg1288
I14
ssI15
(dp1949
g1284
Fnan
sg1285
Vright_lower_back
p1950
sg1287
Fnan
sg1288
I15
ssI16
(dp1951
g1284
Fnan
sg1285
Vright_upper_back
p1952
sg1287
Fnan
sg1288
I16
ssI17
(dp1953
g1284
Fnan
sg1285
Vtorso_front
p1954
sg1287
Fnan
sg1288
I17
ssI18
(dp1955
g1284
Fnan
sg1285
Vleft_abdomen
p1956
sg1287
Fnan
sg1288
I18
ssI19
(dp1957
g1284
Fnan
sg1285
Vleft_chest
p1958
sg1287
Fnan
sg1288
I19
ssI20
(dp1959
g1284
Fnan
sg1285
Vright_abdomen
p1960
sg1287
Fnan
sg1288
I20
ssI21
(dp1961
g1284
Fnan
sg1285
Vright_chest
p1962
sg1287
Fnan
sg1288
I21
ssI22
(dp1963
g1284
Fnan
sg1285
Vleft_arm
p1964
sg1287
Fnan
sg1288
I22
ssI23
(dp1965
g1284
Fnan
sg1285
Vleft_shoulder
p1966
sg1287
Fnan
sg1288
I23
ssI24
(dp1967
g1284
Fnan
sg1285
Vleft_bicep
p1968
sg1287
Fnan
sg1288
I24
ssI25
(dp1969
g1284
Fnan
sg1285
Vleft_tricep
p1970
sg1287
Fnan
sg1288
I25
ssI26
(dp1971
g1284
Fnan
sg1285
Vleft_brachioradialis
p1972
sg1287
Fnan
sg1288
I26
ssI27
(dp1973
g1284
Fnan
sg1285
Vleft_forearm_extensors
p1974
sg1287
Fnan
sg1288
I27
ssI28
(dp1975
g1284
Fnan
sg1285
Vright_arm
p1976
sg1287
Fnan
sg1288
I28
ssI29
(dp1977
g1284
Fnan
sg1285
Vright_shoulder
p1978
sg1287
Fnan
sg1288
I29
ssI30
(dp1979
g1284
Fnan
sg1285
Vright_bicep
p1980
sg1287
Fnan
sg1288
I30
ssI31
(dp1981
g1284
Fnan
sg1285
Vright_tricep
p1982
sg1287
Fnan
sg1288
I31
ssI32
(dp1983
g1284
Fnan
sg1285
Vright_brachioradialis
p1984
sg1287
Fnan
sg1288
I32
ssI33
(dp1985
g1284
Fnan
sg1285
Vright_forearm_extensors
p1986
sg1287
Fnan
sg1288
I33
ssI34
(dp1987
g1284
Fnan
sg1285
Vneck
p1988
sg1287
Fnan
sg1288
I34
ssI35
(dp1989
g1284
Fnan
sg1285
Vthroat
p1990
sg1287
Fnan
sg1288
I35
sssg76
(dp1991
I0
(dp1992
g1284
Fnan
sg1285
Vactive
p1993
sg1287
Fnan
sg1288
I0
ssI1
(dp1994
g1284
Fnan
sg1285
Vrest
p1995
sg1287
Fnan
sg1288
I1
ssI2
(dp1996
g1284
Fnan
sg1285
Vwarmup
p1997
sg1287
Fnan
sg1288
I2
ssI3
(dp1998
g1284
Fnan
sg1285
Vcooldown
p1999
sg1287
Fnan
sg1288
I3
sssg78
(dp2000
I32
(dp2001
g1284
Fnan
sg1285
Vworkout_download
p2002
sg1287
Fnan
sg1288
g1311
ssI1
(dp2003
g1284
Fnan
sg1285
Vbluetooth
p2004
sg1287
Fnan
sg1288
g1314
ssI2
(dp2005
g1284
Fnan
sg1285
Vbluetooth_le
p2006
sg1287
Fnan
sg1288
g1317
ssI4096
(dp2007
g1284
Fnan
sg1285
Vcontinue_sync_after_software_update
p2008
sg1287
Fnan
sg1288
g1320
ssI4
(dp2009
g1284
Fnan
sg1285
Vant
p2010
sg1287
Fnan
sg1288
g1323
ssI1024
(dp2011
g1284
Fnan
sg1285
Vexplicit_archive
p2012
sg1287
Fnan
sg1288
g1326
ssI8192
(dp2013
g1284
Fnan
sg1285
Vconnect_iq_app_download
p2014
sg1287
Fnan
sg1288
g1329
ssI8
(dp2015
g1284
Fnan
sg1285
Vactivity_upload
p2016
sg1287
Fnan
sg1288
g1332
ssI64
(dp2017
g1284
Fnan
sg1285
Vlive_track
p2018
sg1287
Fnan
sg1288
g1371
ssI128
(dp2019
g1284
Fnan
sg1285
Vweather_conditions
p2020
sg1287
Fnan
sg1288
g1335
ssI256
(dp2021
g1284
Fnan
sg1285
Vweather_alerts
p2022
sg1287
Fnan
sg1288
g1338
ssI16
(dp2023
g1284
Fnan
sg1285
Vcourse_download
p2024
sg1287
Fnan
sg1288
g1344
ssI512
(dp2025
g1284
Fnan
sg1285
Vgps_ephemeris_download
p2026
sg1287
Fnan
sg1288
g1346
ssI2048
(dp2027
g1284
Fnan
sg1285
Vsetup_incomplete
p2028
sg1287
Fnan
sg1288
g1349
sssg80
(dp2029
I32
(dp2030
g1284
Fnan
sg1285
Vmonitoring_b
p2031
sg1287
Fnan
sg1288
I32
ssI1
(dp2032
g1284
Fnan
sg1285
Vdevice
p2033
sg1287
Fnan
sg1288
I1
ssI2
(dp2034
g1284
Fnan
sg1285
Vsettings
p2035
sg1287
Fnan
sg1288
I2
ssI3
(dp2036
g1284
Fnan
sg1285
Vsport
p2037
sg1287
Fnan
sg1288
I3
ssI4
(dp2038
g1284
Fnan
sg1285
Vactivity
p2039
sg1287
Fnan
sg1288
I4
ssI5
(dp2040
g1284
Fnan
sg1285
Vworkout
p2041
sg1287
Fnan
sg1288
I5
ssI6
(dp2042
g1284
Fnan
sg1285
Vcourse
p2043
sg1287
Fnan
sg1288
I6
ssI7
(dp2044
g1284
Fnan
sg1285
Vschedules
p2045
sg1287
Fnan
sg1288
I7
ssI9
(dp2046
g1284
Fnan
sg1285
Vweight
p2047
sg1287
Fnan
sg1288
I9
ssI10
(dp2048
g1284
Fnan
sg1285
Vtotals
p2049
sg1287
Fnan
sg1288
I10
ssI11
(dp2050
g1284
Fnan
sg1285
Vgoals
p2051
sg1287
Fnan
sg1288
I11
ssI14
(dp2052
g1284
Fnan
sg1285
g1787
sg1287
Fnan
sg1288
I14
ssI15
(dp2053
g1284
Fnan
sg1285
Vmonitoring_a
p2054
sg1287
Fnan
sg1288
I15
ssI20
(dp2055
g1284
Fnan
sg1285
Vactivity_summary
p2056
sg1287
Fnan
sg1288
I20
ssI247
(dp2057
g1284
Fnan
sg1285
Vmfg_range_min
p2058
sg1287
Fnan
sg1288
V0xF7
p2059
ssI28
(dp2060
g1284
Fnan
sg1285
Vmonitoring_daily
p2061
sg1287
Fnan
sg1288
I28
ssI254
(dp2062
g1284
Fnan
sg1285
Vmfg_range_max
p2063
sg1287
Fnan
sg1288
V0xFE
p2064
sssg82
(dp2065
I0
(dp2066
g1284
Fnan
sg1285
g1403
sg1287
Fnan
sg1288
I0
ssI1
(dp2067
g1284
Fnan
sg1285
g1479
sg1287
Fnan
sg1288
I1
ssI2
(dp2068
g1284
Fnan
sg1285
g1481
sg1287
Fnan
sg1288
I2
ssI3
(dp2069
g1284
Fnan
sg1285
g1483
sg1287
Fnan
sg1288
I3
ssI4
(dp2070
g1284
Fnan
sg1285
g1322
sg1287
Fnan
sg1288
I4
ssI5
(dp2071
g1284
Fnan
sg1285
g1474
sg1287
Fnan
sg1288
I5
ssI6
(dp2072
g1284
Fnan
sg1285
g1485
sg1287
Fnan
sg1288
I6
ssI7
(dp2073
g1284
Fnan
sg1285
g1488
sg1287
Fnan
sg1288
I7
ssI8
(dp2074
g1284
Fnan
sg1285
g1495
sg1287
Fnan
sg1288
I8
ssI9
(dp2075
g1284
Fnan
sg1285
g1497
sg1287
Fnan
sg1288
I9
ssI10
(dp2076
g1284
Fnan
sg1285
g1374
sg1287
Fnan
sg1288
I10
ssI11
(dp2077
g1284
Fnan
sg1285
g1500
sg1287
Fnan
sg1288
I11
ssI12
(dp2078
g1284
Fnan
sg1285
g1506
sg1287
Fnan
sg1288
I12
ssI13
(dp2079
g1284
Fnan
sg1285
g1493
sg1287
Fnan
sg1288
I13
ssI14
(dp2080
g1284
Fnan
sg1285
g1502
sg1287
Fnan
sg1288
I14
ssI15
(dp2081
g1284
Fnan
sg1285
g1504
sg1287
Fnan
sg1288
I15
ssI16
(dp2082
g1284
Fnan
sg1285
g1511
sg1287
Fnan
sg1288
I16
ssI17
(dp2083
g1284
Fnan
sg1285
g1513
sg1287
Fnan
sg1288
I17
ssI18
(dp2084
g1284
Fnan
sg1285
g1515
sg1287
Fnan
sg1288
I18
ssI19
(dp2085
g1284
Fnan
sg1285
g1517
sg1287
Fnan
sg1288
I19
ssI20
(dp2086
g1284
Fnan
sg1285
g1519
sg1287
Fnan
sg1288
I20
ssI21
(dp2087
g1284
Fnan
sg1285
g1509
sg1287
Fnan
sg1288
I21
ssI254
(dp2088
g1284
Fnan
sg1285
g1461
sg1287
Fnan
sg1288
I254
sssg84
(dp2089
I0
(dp2090
g1284
Fnan
sg1285
Vmetric
p2091
sg1287
Fnan
sg1288
I0
ssI1
(dp2092
g1284
Fnan
sg1285
Vstatute
p2093
sg1287
Fnan
sg1288
I1
sssg86
(dp2094
I0
(dp2095
g1284
Fnan
sg1285
Vtimer
p2096
sg1287
Fnan
sg1288
I0
ssI3
(dp2097
g1284
Fnan
sg1285
g2041
sg1287
Fnan
sg1288
I3
ssI4
(dp2098
g1284
Fnan
sg1285
Vworkout_step
p2099
sg1287
Fnan
sg1288
I4
ssI5
(dp2100
g1284
Fnan
sg1285
Vpower_down
p2101
sg1287
Fnan
sg1288
I5
ssI6
(dp2102
g1284
Fnan
sg1285
Vpower_up
p2103
sg1287
Fnan
sg1288
I6
ssI7
(dp2104
g1284
Fnan
sg1285
Voff_course
p2105
sg1287
Fnan
sg1288
I7
ssI8
(dp2106
g1284
Fnan
sg1285
Vsession
p2107
sg1287
Fnan
sg1288
I8
ssI9
(dp2108
g1284
Fnan
sg1285
Vlap
p2109
sg1287
Fnan
sg1288
I9
ssI10
(dp2110
g1284
Fnan
sg1285
Vcourse_point
p2111
sg1287
Fnan
sg1288
I10
ssI11
(dp2112
g1284
Fnan
sg1285
Vbattery
p2113
sg1287
Fnan
sg1288
I11
ssI12
(dp2114
g1284
Fnan
sg1285
Vvirtual_partner_pace
p2115
sg1287
Fnan
sg1288
I12
ssI13
(dp2116
g1284
Fnan
sg1285
Vhr_high_alert
p2117
sg1287
Fnan
sg1288
I13
ssI14
(dp2118
g1284
Fnan
sg1285
Vhr_low_alert
p2119
sg1287
Fnan
sg1288
I14
ssI15
(dp2120
g1284
Fnan
sg1285
Vspeed_high_alert
p2121
sg1287
Fnan
sg1288
I15
ssI16
(dp2122
g1284
Fnan
sg1285
Vspeed_low_alert
p2123
sg1287
Fnan
sg1288
I16
ssI17
(dp2124
g1284
Fnan
sg1285
Vcad_high_alert
p2125
sg1287
Fnan
sg1288
I17
ssI18
(dp2126
g1284
Fnan
sg1285
Vcad_low_alert
p2127
sg1287
Fnan
sg1288
I18
ssI19
(dp2128
g1284
Fnan
sg1285
Vpower_high_alert
p2129
sg1287
Fnan
sg1288
I19
ssI20
(dp2130
g1284
Fnan
sg1285
Vpower_low_alert
p2131
sg1287
Fnan
sg1288
I20
ssI21
(dp2132
g1284
Fnan
sg1285
Vrecovery_hr
p2133
sg1287
Fnan
sg1288
I21
ssI22
(dp2134
g1284
Fnan
sg1285
Vbattery_low
p2135
sg1287
Fnan
sg1288
I22
ssI23
(dp2136
g1284
Fnan
sg1285
Vtime_duration_alert
p2137
sg1287
Fnan
sg1288
I23
ssI24
(dp2138
g1284
Fnan
sg1285
Vdistance_duration_alert
p2139
sg1287
Fnan
sg1288
I24
ssI25
(dp2140
g1284
Fnan
sg1285
Vcalorie_duration_alert
p2141
sg1287
Fnan
sg1288
I25
ssI26
(dp2142
g1284
Fnan
sg1285
g2039
sg1287
Fnan
sg1288
I26
ssI27
(dp2143
g1284
Fnan
sg1285
g1322
sg1287
Fnan
sg1288
I27
ssI28
(dp2144
g1284
Fnan
sg1285
Vlength
p2145
sg1287
Fnan
sg1288
I28
ssI32
(dp2146
g1284
Fnan
sg1285
Vuser_marker
p2147
sg1287
Fnan
sg1288
I32
ssI33
(dp2148
g1284
Fnan
sg1285
Vsport_point
p2149
sg1287
Fnan
sg1288
I33
ssI36
(dp2150
g1284
Fnan
sg1285
Vcalibration
p2151
sg1287
Fnan
sg1288
I36
ssI42
(dp2152
g1284
Fnan
sg1285
Vfront_gear_change
p2153
sg1287
Fnan
sg1288
I42
ssI43
(dp2154
g1284
Fnan
sg1285
Vrear_gear_change
p2155
sg1287
Fnan
sg1288
I43
ssI44
(dp2156
g1284
Fnan
sg1285
Vrider_position_change
p2157
sg1287
Fnan
sg1288
I44
ssI45
(dp2158
g1284
Fnan
sg1285
Velev_high_alert
p2159
sg1287
Fnan
sg1288
I45
ssI46
(dp2160
g1284
Fnan
sg1285
Velev_low_alert
p2161
sg1287
Fnan
sg1288
I46
sssg88
(dp2162
I32768
(dp2163
g1284
Fnan
sg1285
Vselected
p2164
sg1287
Fnan
sg1288
g1398
ssI28672
(dp2165
g1284
Fnan
sg1285
Vreserved
p2166
sg1287
Fnan
sg1288
V0x7000
p2167
ssI4095
(dp2168
g1284
Fnan
sg1285
g1306
sg1287
Fnan
sg1288
V0x0FFF
p2169
sssg90
(dp2170
I0
(dp2171
g1284
Fnan
sg1285
g1286
sg1287
Fnan
sg1288
I0
ssI1
(dp2172
g1284
Fnan
sg1285
g1290
sg1287
Fnan
sg1288
I1
ssI2
(dp2173
g1284
Fnan
sg1285
Vcalories
p2174
sg1287
Fnan
sg1288
I2
ssI3
(dp2175
g1284
Fnan
sg1285
Vfrequency
p2176
sg1287
Fnan
sg1288
I3
ssI4
(dp2177
g1284
Fnan
sg1285
Vsteps
p2178
sg1287
Fnan
sg1288
I4
sssg92
(dp2179
I0
(dp2180
g1284
Fnan
sg1285
g2041
sg1287
Fnan
sg1288
I0
ssI1
(dp2181
g1284
Fnan
sg1285
g2043
sg1287
Fnan
sg1288
I1
sssg94
(dp2182
I0
(dp2183
g1284
Fnan
sg1285
g1334
sg1287
Fnan
sg1288
I0
ssI1
(dp2184
g1284
Fnan
sg1285
g1337
sg1287
Fnan
sg1288
I1
ssI2
(dp2185
g1284
Fnan
sg1285
Vopen
p2186
sg1287
Fnan
sg1288
I2
ssI3
(dp2187
g1284
Fnan
sg1285
g1325
sg1287
Fnan
sg1288
I3
ssI4
(dp2188
g1284
Fnan
sg1285
g1348
sg1287
Fnan
sg1288
I4
ssI5
(dp2189
g1284
Fnan
sg1285
g1319
sg1287
Fnan
sg1288
I5
ssI6
(dp2190
g1284
Fnan
sg1285
g1328
sg1287
Fnan
sg1288
I6
sssg96
(dp2191
I0
(dp2192
g1284
Fnan
sg1285
g1286
sg1287
Fnan
sg1288
I0
ssI1
(dp2193
g1284
Fnan
sg1285
g1290
sg1287
Fnan
sg1288
I1
ssI2
(dp2194
g1284
Fnan
sg1285
Vhr_less_than
p2195
sg1287
Fnan
sg1288
I2
ssI3
(dp2196
g1284
Fnan
sg1285
Vhr_greater_than
p2197
sg1287
Fnan
sg1288
I3
ssI4
(dp2198
g1284
Fnan
sg1285
g2174
sg1287
Fnan
sg1288
I4
ssI5
(dp2199
g1284
Fnan
sg1285
g2186
sg1287
Fnan
sg1288
I5
ssI6
(dp2200
g1284
Fnan
sg1285
Vrepeat_until_steps_cmplt
p2201
sg1287
Fnan
sg1288
I6
ssI7
(dp2202
g1284
Fnan
sg1285
Vrepeat_until_time
p2203
sg1287
Fnan
sg1288
I7
ssI8
(dp2204
g1284
Fnan
sg1285
Vrepeat_until_distance
p2205
sg1287
Fnan
sg1288
I8
ssI9
(dp2206
g1284
Fnan
sg1285
Vrepeat_until_calories
p2207
sg1287
Fnan
sg1288
I9
ssI10
(dp2208
g1284
Fnan
sg1285
Vrepeat_until_hr_less_than
p2209
sg1287
Fnan
sg1288
I10
ssI11
(dp2210
g1284
Fnan
sg1285
Vrepeat_until_hr_greater_than
p2211
sg1287
Fnan
sg1288
I11
ssI12
(dp2212
g1284
Fnan
sg1285
Vrepeat_until_power_less_than
p2213
sg1287
Fnan
sg1288
I12
ssI13
(dp2214
g1284
Fnan
sg1285
Vrepeat_until_power_greater_than
p2215
sg1287
Fnan
sg1288
I13
ssI14
(dp2216
g1284
Fnan
sg1285
Vpower_less_than
p2217
sg1287
Fnan
sg1288
I14
ssI15
(dp2218
g1284
Fnan
sg1285
Vpower_greater_than
p2219
sg1287
Fnan
sg1288
I15
ssI28
(dp2220
g1284
Fnan
sg1285
Vrepetition_time
p2221
sg1287
Fnan
sg1288
I28
sssg98
(dp2222
I0
(dp2223
g1284
Fnan
sg1285
Vdegree
p2224
sg1287
Fnan
sg1288
I0
ssI1
(dp2225
g1284
Fnan
sg1285
Vdegree_minute
p2226
sg1287
Fnan
sg1288
I1
ssI2
(dp2227
g1284
Fnan
sg1285
Vdegree_minute_second
p2228
sg1287
Fnan
sg1288
I2
ssI3
(dp2229
g1284
Fnan
sg1285
Vaustrian_grid
p2230
sg1287
Fnan
sg1288
I3
ssI4
(dp2231
g1284
Fnan
sg1285
Vbritish_grid
p2232
sg1287
Fnan
sg1288
I4
ssI5
(dp2233
g1284
Fnan
sg1285
Vdutch_grid
p2234
sg1287
Fnan
sg1288
I5
ssI6
(dp2235
g1284
Fnan
sg1285
Vhungarian_grid
p2236
sg1287
Fnan
sg1288
I6
ssI7
(dp2237
g1284
Fnan
sg1285
Vfinnish_grid
p2238
sg1287
Fnan
sg1288
I7
ssI8
(dp2239
g1284
Fnan
sg1285
Vgerman_grid
p2240
sg1287
Fnan
sg1288
I8
ssI9
(dp2241
g1284
Fnan
sg1285
Vicelandic_grid
p2242
sg1287
Fnan
sg1288
I9
ssI10
(dp2243
g1284
Fnan
sg1285
Vindonesian_equatorial
p2244
sg1287
Fnan
sg1288
I10
ssI11
(dp2245
g1284
Fnan
sg1285
Vindonesian_irian
p2246
sg1287
Fnan
sg1288
I11
ssI12
(dp2247
g1284
Fnan
sg1285
Vindonesian_southern
p2248
sg1287
Fnan
sg1288
I12
ssI13
(dp2249
g1284
Fnan
sg1285
Vindia_zone_0
p2250
sg1287
Fnan
sg1288
I13
ssI14
(dp2251
g1284
Fnan
sg1285
Vindia_zone_IA
p2252
sg1287
Fnan
sg1288
I14
ssI15
(dp2253
g1284
Fnan
sg1285
Vindia_zone_IB
p2254
sg1287
Fnan
sg1288
I15
ssI16
(dp2255
g1284
Fnan
sg1285
Vindia_zone_IIA
p2256
sg1287
Fnan
sg1288
I16
ssI17
(dp2257
g1284
Fnan
sg1285
Vindia_zone_IIB
p2258
sg1287
Fnan
sg1288
I17
ssI18
(dp2259
g1284
Fnan
sg1285
Vindia_zone_IIIA
p2260
sg1287
Fnan
sg1288
I18
ssI19
(dp2261
g1284
Fnan
sg1285
Vindia_zone_IIIB
p2262
sg1287
Fnan
sg1288
I19
ssI20
(dp2263
g1284
Fnan
sg1285
Vindia_zone_IVA
p2264
sg1287
Fnan
sg1288
I20
ssI21
(dp2265
g1284
Fnan
sg1285
Vindia_zone_IVB
p2266
sg1287
Fnan
sg1288
I21
ssI22
(dp2267
g1284
Fnan
sg1285
Virish_transverse
p2268
sg1287
Fnan
sg1288
I22
ssI23
(dp2269
g1284
Fnan
sg1285
Virish_grid
p2270
sg1287
Fnan
sg1288
I23
ssI24
(dp2271
g1284
Fnan
sg1285
Vloran
p2272
sg1287
Fnan
sg1288
I24
ssI25
(dp2273
g1284
Fnan
sg1285
Vmaidenhead_grid
p2274
sg1287
Fnan
sg1288
I25
ssI26
(dp2275
g1284
Fnan
sg1285
Vmgrs_grid
p2276
sg1287
Fnan
sg1288
I26
ssI27
(dp2277
g1284
Fnan
sg1285
Vnew_zealand_grid
p2278
sg1287
Fnan
sg1288
I27
ssI28
(dp2279
g1284
Fnan
sg1285
Vnew_zealand_transverse
p2280
sg1287
Fnan
sg1288
I28
ssI29
(dp2281
g1284
Fnan
sg1285
Vqatar_grid
p2282
sg1287
Fnan
sg1288
I29
ssI30
(dp2283
g1284
Fnan
sg1285
Vmodified_swedish_grid
p2284
sg1287
Fnan
sg1288
I30
ssI31
(dp2285
g1284
Fnan
sg1285
Vswedish_grid
p2286
sg1287
Fnan
sg1288
I31
ssI32
(dp2287
g1284
Fnan
sg1285
Vsouth_african_grid
p2288
sg1287
Fnan
sg1288
I32
ssI33
(dp2289
g1284
Fnan
sg1285
Vswiss_grid
p2290
sg1287
Fnan
sg1288
I33
ssI34
(dp2291
g1284
Fnan
sg1285
Vtaiwan_grid
p2292
sg1287
Fnan
sg1288
I34
ssI35
(dp2293
g1284
Fnan
sg1285
Vunited_states_grid
p2294
sg1287
Fnan
sg1288
I35
ssI36
(dp2295
g1284
Fnan
sg1285
Vutm_ups_grid
p2296
sg1287
Fnan
sg1288
I36
ssI37
(dp2297
g1284
Fnan
sg1285
Vwest_malayan
p2298
sg1287
Fnan
sg1288
I37
ssI38
(dp2299
g1284
Fnan
sg1285
Vborneo_rso
p2300
sg1287
Fnan
sg1288
I38
ssI39
(dp2301
g1284
Fnan
sg1285
Vestonian_grid
p2302
sg1287
Fnan
sg1288
I39
ssI40
(dp2303
g1284
Fnan
sg1285
Vlatvian_grid
p2304
sg1287
Fnan
sg1288
I40
ssI41
(dp2305
g1284
Fnan
sg1285
Vswedish_ref_99_grid
p2306
sg1287
Fnan
sg1288
I41
sssg100
(dp2307
I0
(dp2308
g1284
Fnan
sg1285
g1300
sg1287
Fnan
sg1288
I0
ssI1
(dp2309
g1284
Fnan
sg1285
Vdaily
p2310
sg1287
Fnan
sg1288
I1
ssI2
(dp2311
g1284
Fnan
sg1285
Vweekly
p2312
sg1287
Fnan
sg1288
I2
ssI3
(dp2313
g1284
Fnan
sg1285
Vmonthly
p2314
sg1287
Fnan
sg1288
I3
ssI4
(dp2315
g1284
Fnan
sg1285
Vyearly
p2316
sg1287
Fnan
sg1288
I4
ssI5
(dp2317
g1284
Fnan
sg1285
g1316
sg1287
Fnan
sg1288
I5
sssg102
(dp2318
I0
(dp2319
g1284
Fnan
sg1285
Vwatts
p2320
sg1287
Fnan
sg1288
I0
ssI1
(dp2321
g1284
Fnan
sg1285
g1829
sg1287
Fnan
sg1288
I1
sssg104
(dp2322
I0
(dp2323
g1284
Fnan
sg1285
g1352
sg1287
Fnan
sg1288
I0
ssI1
(dp2324
g1284
Fnan
sg1285
g1384
sg1287
Fnan
sg1288
I1
sssg106
(dp2325
I0
(dp2326
g1284
Fnan
sg1285
g2010
sg1287
Fnan
sg1288
I0
ssI1
(dp2327
g1284
Fnan
sg1285
Vantplus
p2328
sg1287
Fnan
sg1288
I1
ssI2
(dp2329
g1284
Fnan
sg1285
g2004
sg1287
Fnan
sg1288
I2
ssI3
(dp2330
g1284
Fnan
sg1285
Vbluetooth_low_energy
p2331
sg1287
Fnan
sg1288
I3
ssI4
(dp2332
g1284
Fnan
sg1285
Vwifi
p2333
sg1287
Fnan
sg1288
I4
ssI5
(dp2334
g1284
Fnan
sg1285
Vlocal
p2335
sg1287
Fnan
sg1288
I5
sssg108
(dp2336
I0
(dp2337
g1284
Fnan
sg1285
Vbpm
p2338
sg1287
Fnan
sg1288
I0
ssI1
(dp2339
g1284
Fnan
sg1285
Vmax
p2340
sg1287
Fnan
sg1288
I1
ssI2
(dp2341
g1284
Fnan
sg1285
Vreserve
p2342
sg1287
Fnan
sg1288
I2
sssg110
(dp2343
I1
(dp2344
g1284
Fnan
sg1285
Vgarmin
p2345
sg1287
Fnan
sg1288
I1
ssI2
(dp2346
g1284
Fnan
sg1285
Vgarmin_fr405_antfs
p2347
sg1287
Fnan
sg1288
I2
ssI3
(dp2348
g1284
Fnan
sg1285
Vzephyr
p2349
sg1287
Fnan
sg1288
I3
ssI4
(dp2350
g1284
Fnan
sg1285
Vdayton
p2351
sg1287
Fnan
sg1288
I4
ssI5
(dp2352
g1284
Fnan
sg1285
Vidt
p2353
sg1287
Fnan
sg1288
I5
ssI6
(dp2354
g1284
Fnan
sg1285
Vsrm
p2355
sg1287
Fnan
sg1288
I6
ssI7
(dp2356
g1284
Fnan
sg1285
Vquarq
p2357
sg1287
Fnan
sg1288
I7
ssI8
(dp2358
g1284
Fnan
sg1285
Vibike
p2359
sg1287
Fnan
sg1288
I8
ssI9
(dp2360
g1284
Fnan
sg1285
Vsaris
p2361
sg1287
Fnan
sg1288
I9
ssI10
(dp2362
g1284
Fnan
sg1285
Vspark_hk
p2363
sg1287
Fnan
sg1288
I10
ssI11
(dp2364
g1284
Fnan
sg1285
Vtanita
p2365
sg1287
Fnan
sg1288
I11
ssI12
(dp2366
g1284
Fnan
sg1285
Vechowell
p2367
sg1287
Fnan
sg1288
I12
ssI13
(dp2368
g1284
Fnan
sg1285
Vdynastream_oem
p2369
sg1287
Fnan
sg1288
I13
ssI14
(dp2370
g1284
Fnan
sg1285
Vnautilus
p2371
sg1287
Fnan
sg1288
I14
ssI15
(dp2372
g1284
Fnan
sg1285
Vdynastream
p2373
sg1287
Fnan
sg1288
I15
ssI16
(dp2374
g1284
Fnan
sg1285
Vtimex
p2375
sg1287
Fnan
sg1288
I16
ssI17
(dp2376
g1284
Fnan
sg1285
Vmetrigear
p2377
sg1287
Fnan
sg1288
I17
ssI18
(dp2378
g1284
Fnan
sg1285
Vxelic
p2379
sg1287
Fnan
sg1288
I18
ssI19
(dp2380
g1284
Fnan
sg1285
Vbeurer
p2381
sg1287
Fnan
sg1288
I19
ssI20
(dp2382
g1284
Fnan
sg1285
Vcardiosport
p2383
sg1287
Fnan
sg1288
I20
ssI21
(dp2384
g1284
Fnan
sg1285
Va_and_d
p2385
sg1287
Fnan
sg1288
I21
ssI22
(dp2386
g1284
Fnan
sg1285
Vhmm
p2387
sg1287
Fnan
sg1288
I22
ssI23
(dp2388
g1284
Fnan
sg1285
Vsuunto
p2389
sg1287
Fnan
sg1288
I23
ssI24
(dp2390
g1284
Fnan
sg1285
Vthita_elektronik
p2391
sg1287
Fnan
sg1288
I24
ssI25
(dp2392
g1284
Fnan
sg1285
Vgpulse
p2393
sg1287
Fnan
sg1288
I25
ssI26
(dp2394
g1284
Fnan
sg1285
Vclean_mobile
p2395
sg1287
Fnan
sg1288
I26
ssI27
(dp2396
g1284
Fnan
sg1285
Vpedal_brain
p2397
sg1287
Fnan
sg1288
I27
ssI28
(dp2398
g1284
Fnan
sg1285
Vpeaksware
p2399
sg1287
Fnan
sg1288
I28
ssI29
(dp2400
g1284
Fnan
sg1285
Vsaxonar
p2401
sg1287
Fnan
sg1288
I29
ssI30
(dp2402
g1284
Fnan
sg1285
Vlemond_fitness
p2403
sg1287
Fnan
sg1288
I30
ssI31
(dp2404
g1284
Fnan
sg1285
Vdexcom
p2405
sg1287
Fnan
sg1288
I31
ssI32
(dp2406
g1284
Fnan
sg1285
Vwahoo_fitness
p2407
sg1287
Fnan
sg1288
I32
ssI33
(dp2408
g1284
Fnan
sg1285
Voctane_fitness
p2409
sg1287
Fnan
sg1288
I33
ssI34
(dp2410
g1284
Fnan
sg1285
Varchinoetics
p2411
sg1287
Fnan
sg1288
I34
ssI35
(dp2412
g1284
Fnan
sg1285
Vthe_hurt_box
p2413
sg1287
Fnan
sg1288
I35
ssI36
(dp2414
g1284
Fnan
sg1285
Vcitizen_systems
p2415
sg1287
Fnan
sg1288
I36
ssI37
(dp2416
g1284
Fnan
sg1285
Vmagellan
p2417
sg1287
Fnan
sg1288
I37
ssI38
(dp2418
g1284
Fnan
sg1285
Vosynce
p2419
sg1287
Fnan
sg1288
I38
ssI39
(dp2420
g1284
Fnan
sg1285
Vholux
p2421
sg1287
Fnan
sg1288
I39
ssI40
(dp2422
g1284
Fnan
sg1285
Vconcept2
p2423
sg1287
Fnan
sg1288
I40
ssI42
(dp2424
g1284
Fnan
sg1285
Vone_giant_leap
p2425
sg1287
Fnan
sg1288
I42
ssI43
(dp2426
g1284
Fnan
sg1285
Vace_sensor
p2427
sg1287
Fnan
sg1288
I43
ssI44
(dp2428
g1284
Fnan
sg1285
Vbrim_brothers
p2429
sg1287
Fnan
sg1288
I44
ssI45
(dp2430
g1284
Fnan
sg1285
Vxplova
p2431
sg1287
Fnan
sg1288
I45
ssI46
(dp2432
g1284
Fnan
sg1285
Vperception_digital
p2433
sg1287
Fnan
sg1288
I46
ssI47
(dp2434
g1284
Fnan
sg1285
Vbf1systems
p2435
sg1287
Fnan
sg1288
I47
ssI48
(dp2436
g1284
Fnan
sg1285
Vpioneer
p2437
sg1287
Fnan
sg1288
I48
ssI49
(dp2438
g1284
Fnan
sg1285
Vspantec
p2439
sg1287
Fnan
sg1288
I49
ssI50
(dp2440
g1284
Fnan
sg1285
Vmetalogics
p2441
sg1287
Fnan
sg1288
I50
ssI51
(dp2442
g1284
Fnan
sg1285
V4iiiis
p2443
sg1287
Fnan
sg1288
I51
ssI52
(dp2444
g1284
Fnan
sg1285
Vseiko_epson
p2445
sg1287
Fnan
sg1288
I52
ssI53
(dp2446
g1284
Fnan
sg1285
Vseiko_epson_oem
p2447
sg1287
Fnan
sg1288
I53
ssI54
(dp2448
g1284
Fnan
sg1285
Vifor_powell
p2449
sg1287
Fnan
sg1288
I54
ssI55
(dp2450
g1284
Fnan
sg1285
Vmaxwell_guider
p2451
sg1287
Fnan
sg1288
I55
ssI56
(dp2452
g1284
Fnan
sg1285
Vstar_trac
p2453
sg1287
Fnan
sg1288
I56
ssI57
(dp2454
g1284
Fnan
sg1285
Vbreakaway
p2455
sg1287
Fnan
sg1288
I57
ssI58
(dp2456
g1284
Fnan
sg1285
Valatech_technology_ltd
p2457
sg1287
Fnan
sg1288
I58
ssI59
(dp2458
g1284
Fnan
sg1285
Vmio_technology_europe
p2459
sg1287
Fnan
sg1288
I59
ssI60
(dp2460
g1284
Fnan
sg1285
Vrotor
p2461
sg1287
Fnan
sg1288
I60
ssI61
(dp2462
g1284
Fnan
sg1285
Vgeonaute
p2463
sg1287
Fnan
sg1288
I61
ssI62
(dp2464
g1284
Fnan
sg1285
Vid_bike
p2465
sg1287
Fnan
sg1288
I62
ssI63
(dp2466
g1284
Fnan
sg1285
Vspecialized
p2467
sg1287
Fnan
sg1288
I63
ssI64
(dp2468
g1284
Fnan
sg1285
Vwtek
p2469
sg1287
Fnan
sg1288
I64
ssI65
(dp2470
g1284
Fnan
sg1285
Vphysical_enterprises
p2471
sg1287
Fnan
sg1288
I65
ssI66
(dp2472
g1284
Fnan
sg1285
Vnorth_pole_engineering
p2473
sg1287
Fnan
sg1288
I66
ssI67
(dp2474
g1284
Fnan
sg1285
Vbkool
p2475
sg1287
Fnan
sg1288
I67
ssI68
(dp2476
g1284
Fnan
sg1285
Vcateye
p2477
sg1287
Fnan
sg1288
I68
ssI69
(dp2478
g1284
Fnan
sg1285
Vstages_cycling
p2479
sg1287
Fnan
sg1288
I69
ssI70
(dp2480
g1284
Fnan
sg1285
Vsigmasport
p2481
sg1287
Fnan
sg1288
I70
ssI71
(dp2482
g1284
Fnan
sg1285
Vtomtom
p2483
sg1287
Fnan
sg1288
I71
ssI72
(dp2484
g1284
Fnan
sg1285
Vperipedal
p2485
sg1287
Fnan
sg1288
I72
ssI73
(dp2486
g1284
Fnan
sg1285
Vwattbike
p2487
sg1287
Fnan
sg1288
I73
ssI76
(dp2488
g1284
Fnan
sg1285
Vmoxy
p2489
sg1287
Fnan
sg1288
I76
ssI77
(dp2490
g1284
Fnan
sg1285
Vciclosport
p2491
sg1287
Fnan
sg1288
I77
ssI78
(dp2492
g1284
Fnan
sg1285
Vpowerbahn
p2493
sg1287
Fnan
sg1288
I78
ssI79
(dp2494
g1284
Fnan
sg1285
Vacorn_projects_aps
p2495
sg1287
Fnan
sg1288
I79
ssI80
(dp2496
g1284
Fnan
sg1285
Vlifebeam
p2497
sg1287
Fnan
sg1288
I80
ssI81
(dp2498
g1284
Fnan
sg1285
Vbontrager
p2499
sg1287
Fnan
sg1288
I81
ssI82
(dp2500
g1284
Fnan
sg1285
Vwellgo
p2501
sg1287
Fnan
sg1288
I82
ssI83
(dp2502
g1284
Fnan
sg1285
Vscosche
p2503
sg1287
Fnan
sg1288
I83
ssI84
(dp2504
g1284
Fnan
sg1285
Vmagura
p2505
sg1287
Fnan
sg1288
I84
ssI85
(dp2506
g1284
Fnan
sg1285
Vwoodway
p2507
sg1287
Fnan
sg1288
I85
ssI86
(dp2508
g1284
Fnan
sg1285
Velite
p2509
sg1287
Fnan
sg1288
I86
ssI87
(dp2510
g1284
Fnan
sg1285
Vnielsen_kellerman
p2511
sg1287
Fnan
sg1288
I87
ssI88
(dp2512
g1284
Fnan
sg1285
Vdk_city
p2513
sg1287
Fnan
sg1288
I88
ssI89
(dp2514
g1284
Fnan
sg1285
Vtacx
p2515
sg1287
Fnan
sg1288
I89
ssI90
(dp2516
g1284
Fnan
sg1285
Vdirection_technology
p2517
sg1287
Fnan
sg1288
I90
ssI91
(dp2518
g1284
Fnan
sg1285
Vmagtonic
p2519
sg1287
Fnan
sg1288
I91
ssI92
(dp2520
g1284
Fnan
sg1285
V1partcarbon
p2521
sg1287
Fnan
sg1288
I92
ssI93
(dp2522
g1284
Fnan
sg1285
Vinside_ride_technologies
p2523
sg1287
Fnan
sg1288
I93
ssI94
(dp2524
g1284
Fnan
sg1285
Vsound_of_motion
p2525
sg1287
Fnan
sg1288
I94
ssI5759
(dp2526
g1284
Fnan
sg1285
Vactigraphcorp
p2527
sg1287
Fnan
sg1288
I5759
ssI255
(dp2528
g1284
Fnan
sg1285
Vdevelopment
p2529
sg1287
Fnan
sg1288
I255
ssI257
(dp2530
g1284
Fnan
sg1285
Vhealthandlife
p2531
sg1287
Fnan
sg1288
I257
ssI258
(dp2532
g1284
Fnan
sg1285
Vlezyne
p2533
sg1287
Fnan
sg1288
I258
ssI259
(dp2534
g1284
Fnan
sg1285
Vscribe_labs
p2535
sg1287
Fnan
sg1288
I259
ssI260
(dp2536
g1284
Fnan
sg1285
Vzwift
p2537
sg1287
Fnan
sg1288
I260
ssI261
(dp2538
g1284
Fnan
sg1285
Vwatteam
p2539
sg1287
Fnan
sg1288
I261
ssI262
(dp2540
g1284
Fnan
sg1285
Vrecon
p2541
sg1287
Fnan
sg1288
I262
sssg112
(dp2542
I0
(dp2543
g1284
Fnan
sg1285
Vidle
p2544
sg1287
Fnan
sg1288
I0
ssI1
(dp2545
g1284
Fnan
sg1285
g1993
sg1287
Fnan
sg1288
I1
sssg114
(dp2546
I268435456
(dp2547
g1284
Fnan
sg1285
g1736
sg1287
Fnan
sg1288
g1737
sssg116
(dp2548
I0
(dp2549
g1284
Fnan
sg1285
Venglish
p2550
sg1287
Fnan
sg1288
I0
ssI1
(dp2551
g1284
Fnan
sg1285
Vfrench
p2552
sg1287
Fnan
sg1288
I1
ssI2
(dp2553
g1284
Fnan
sg1285
Vitalian
p2554
sg1287
Fnan
sg1288
I2
ssI3
(dp2555
g1284
Fnan
sg1285
Vgerman
p2556
sg1287
Fnan
sg1288
I3
ssI4
(dp2557
g1284
Fnan
sg1285
Vspanish
p2558
sg1287
Fnan
sg1288
I4
ssI5
(dp2559
g1284
Fnan
sg1285
Vcroatian
p2560
sg1287
Fnan
sg1288
I5
ssI6
(dp2561
g1284
Fnan
sg1285
Vczech
p2562
sg1287
Fnan
sg1288
I6
ssI7
(dp2563
g1284
Fnan
sg1285
Vdanish
p2564
sg1287
Fnan
sg1288
I7
ssI8
(dp2565
g1284
Fnan
sg1285
Vdutch
p2566
sg1287
Fnan
sg1288
I8
ssI9
(dp2567
g1284
Fnan
sg1285
Vfinnish
p2568
sg1287
Fnan
sg1288
I9
ssI10
(dp2569
g1284
Fnan
sg1285
Vgreek
p2570
sg1287
Fnan
sg1288
I10
ssI11
(dp2571
g1284
Fnan
sg1285
Vhungarian
p2572
sg1287
Fnan
sg1288
I11
ssI12
(dp2573
g1284
Fnan
sg1285
Vnorwegian
p2574
sg1287
Fnan
sg1288
I12
ssI13
(dp2575
g1284
Fnan
sg1285
Vpolish
p2576
sg1287
Fnan
sg1288
I13
ssI14
(dp2577
g1284
Fnan
sg1285
Vportuguese
p2578
sg1287
Fnan
sg1288
I14
ssI15
(dp2579
g1284
Fnan
sg1285
Vslovakian
p2580
sg1287
Fnan
sg1288
I15
ssI16
(dp2581
g1284
Fnan
sg1285
Vslovenian
p2582
sg1287
Fnan
sg1288
I16
ssI17
(dp2583
g1284
Fnan
sg1285
Vswedish
p2584
sg1287
Fnan
sg1288
I17
ssI18
(dp2585
g1284
Fnan
sg1285
Vrussian
p2586
sg1287
Fnan
sg1288
I18
ssI19
(dp2587
g1284
Fnan
sg1285
Vturkish
p2588
sg1287
Fnan
sg1288
I19
ssI20
(dp2589
g1284
Fnan
sg1285
Vlatvian
p2590
sg1287
Fnan
sg1288
I20
ssI21
(dp2591
g1284
Fnan
sg1285
Vukrainian
p2592
sg1287
Fnan
sg1288
I21
ssI22
(dp2593
g1284
Fnan
sg1285
Varabic
p2594
sg1287
Fnan
sg1288
I22
ssI23
(dp2595
g1284
Fnan
sg1285
Vfarsi
p2596
sg1287
Fnan
sg1288
I23
ssI24
(dp2597
g1284
Fnan
sg1285
Vbulgarian
p2598
sg1287
Fnan
sg1288
I24
ssI25
(dp2599
g1284
Fnan
sg1285
Vromanian
p2600
sg1287
Fnan
sg1288
I25
ssI254
(dp2601
g1284
Fnan
sg1285
g1316
sg1287
Fnan
sg1288
I254
sssg118
(dp2602
I128
(dp2603
g1284
Fnan
sg1285
Vathlete
p2604
sg1287
Fnan
sg1288
g1304
ssI100
(dp2605
g1284
Fnan
sg1285
Vlevel_max
p2606
sg1287
Fnan
sg1288
I100
ssI127
(dp2607
g1284
Fnan
sg1285
Vlevel
p2608
sg1287
Fnan
sg1288
g1307
sssg120
(dp2609
I0
(dp2610
g1284
Fnan
sg1285
Valmaty
p2611
sg1287
Fnan
sg1288
I0
ssI1
(dp2612
g1284
Fnan
sg1285
Vbangkok
p2613
sg1287
Fnan
sg1288
I1
ssI2
(dp2614
g1284
Fnan
sg1285
Vbombay
p2615
sg1287
Fnan
sg1288
I2
ssI3
(dp2616
g1284
Fnan
sg1285
Vbrasilia
p2617
sg1287
Fnan
sg1288
I3
ssI4
(dp2618
g1284
Fnan
sg1285
Vcairo
p2619
sg1287
Fnan
sg1288
I4
ssI5
(dp2620
g1284
Fnan
sg1285
Vcape_verde_is
p2621
sg1287
Fnan
sg1288
I5
ssI6
(dp2622
g1284
Fnan
sg1285
Vdarwin
p2623
sg1287
Fnan
sg1288
I6
ssI7
(dp2624
g1284
Fnan
sg1285
Veniwetok
p2625
sg1287
Fnan
sg1288
I7
ssI8
(dp2626
g1284
Fnan
sg1285
Vfiji
p2627
sg1287
Fnan
sg1288
I8
ssI9
(dp2628
g1284
Fnan
sg1285
Vhong_kong
p2629
sg1287
Fnan
sg1288
I9
ssI10
(dp2630
g1284
Fnan
sg1285
Vislamabad
p2631
sg1287
Fnan
sg1288
I10
ssI11
(dp2632
g1284
Fnan
sg1285
Vkabul
p2633
sg1287
Fnan
sg1288
I11
ssI12
(dp2634
g1284
Fnan
sg1285
Vmagadan
p2635
sg1287
Fnan
sg1288
I12
ssI13
(dp2636
g1284
Fnan
sg1285
Vmid_atlantic
p2637
sg1287
Fnan
sg1288
I13
ssI14
(dp2638
g1284
Fnan
sg1285
Vmoscow
p2639
sg1287
Fnan
sg1288
I14
ssI15
(dp2640
g1284
Fnan
sg1285
Vmuscat
p2641
sg1287
Fnan
sg1288
I15
ssI16
(dp2642
g1284
Fnan
sg1285
Vnewfoundland
p2643
sg1287
Fnan
sg1288
I16
ssI17
(dp2644
g1284
Fnan
sg1285
Vsamoa
p2645
sg1287
Fnan
sg1288
I17
ssI18
(dp2646
g1284
Fnan
sg1285
Vsydney
p2647
sg1287
Fnan
sg1288
I18
ssI19
(dp2648
g1284
Fnan
sg1285
Vtehran
p2649
sg1287
Fnan
sg1288
I19
ssI20
(dp2650
g1284
Fnan
sg1285
Vtokyo
p2651
sg1287
Fnan
sg1288
I20
ssI21
(dp2652
g1284
Fnan
sg1285
Vus_alaska
p2653
sg1287
Fnan
sg1288
I21
ssI22
(dp2654
g1284
Fnan
sg1285
Vus_atlantic
p2655
sg1287
Fnan
sg1288
I22
ssI23
(dp2656
g1284
Fnan
sg1285
Vus_central
p2657
sg1287
Fnan
sg1288
I23
ssI24
(dp2658
g1284
Fnan
sg1285
Vus_eastern
p2659
sg1287
Fnan
sg1288
I24
ssI25
(dp2660
g1284
Fnan
sg1285
Vus_hawaii
p2661
sg1287
Fnan
sg1288
I25
ssI26
(dp2662
g1284
Fnan
sg1285
Vus_mountain
p2663
sg1287
Fnan
sg1288
I26
ssI27
(dp2664
g1284
Fnan
sg1285
Vus_pacific
p2665
sg1287
Fnan
sg1288
I27
ssI28
(dp2666
g1284
Fnan
sg1285
g1884
sg1287
Fnan
sg1288
I28
ssI29
(dp2667
g1284
Fnan
sg1285
Vauckland
p2668
sg1287
Fnan
sg1288
I29
ssI30
(dp2669
g1284
Fnan
sg1285
Vkathmandu
p2670
sg1287
Fnan
sg1288
I30
ssI31
(dp2671
g1284
Fnan
sg1285
Veurope_western_wet
p2672
sg1287
Fnan
sg1288
I31
ssI32
(dp2673
g1284
Fnan
sg1285
Veurope_central_cet
p2674
sg1287
Fnan
sg1288
I32
ssI33
(dp2675
g1284
Fnan
sg1285
Veurope_eastern_eet
p2676
sg1287
Fnan
sg1288
I33
ssI34
(dp2677
g1284
Fnan
sg1285
Vjakarta
p2678
sg1287
Fnan
sg1288
I34
ssI35
(dp2679
g1284
Fnan
sg1285
Vperth
p2680
sg1287
Fnan
sg1288
I35
ssI36
(dp2681
g1284
Fnan
sg1285
Vadelaide
p2682
sg1287
Fnan
sg1288
I36
ssI37
(dp2683
g1284
Fnan
sg1285
Vbrisbane
p2684
sg1287
Fnan
sg1288
I37
ssI38
(dp2685
g1284
Fnan
sg1285
Vtasmania
p2686
sg1287
Fnan
sg1288
I38
ssI39
(dp2687
g1284
Fnan
sg1285
Viceland
p2688
sg1287
Fnan
sg1288
I39
ssI40
(dp2689
g1284
Fnan
sg1285
Vamsterdam
p2690
sg1287
Fnan
sg1288
I40
ssI41
(dp2691
g1284
Fnan
sg1285
Vathens
p2692
sg1287
Fnan
sg1288
I41
ssI42
(dp2693
g1284
Fnan
sg1285
Vbarcelona
p2694
sg1287
Fnan
sg1288
I42
ssI43
(dp2695
g1284
Fnan
sg1285
Vberlin
p2696
sg1287
Fnan
sg1288
I43
ssI44
(dp2697
g1284
Fnan
sg1285
Vbrussels
p2698
sg1287
Fnan
sg1288
I44
ssI45
(dp2699
g1284
Fnan
sg1285
Vbudapest
p2700
sg1287
Fnan
sg1288
I45
ssI46
(dp2701
g1284
Fnan
sg1285
Vcopenhagen
p2702
sg1287
Fnan
sg1288
I46
ssI47
(dp2703
g1284
Fnan
sg1285
Vdublin
p2704
sg1287
Fnan
sg1288
I47
ssI48
(dp2705
g1284
Fnan
sg1285
Vhelsinki
p2706
sg1287
Fnan
sg1288
I48
ssI49
(dp2707
g1284
Fnan
sg1285
Vlisbon
p2708
sg1287
Fnan
sg1288
I49
ssI50
(dp2709
g1284
Fnan
sg1285
Vlondon
p2710
sg1287
Fnan
sg1288
I50
ssI51
(dp2711
g1284
Fnan
sg1285
Vmadrid
p2712
sg1287
Fnan
sg1288
I51
ssI52
(dp2713
g1284
Fnan
sg1285
Vmunich
p2714
sg1287
Fnan
sg1288
I52
ssI53
(dp2715
g1284
Fnan
sg1285
Voslo
p2716
sg1287
Fnan
sg1288
I53
ssI54
(dp2717
g1284
Fnan
sg1285
Vparis
p2718
sg1287
Fnan
sg1288
I54
ssI55
(dp2719
g1284
Fnan
sg1285
Vprague
p2720
sg1287
Fnan
sg1288
I55
ssI56
(dp2721
g1284
Fnan
sg1285
Vreykjavik
p2722
sg1287
Fnan
sg1288
I56
ssI57
(dp2723
g1284
Fnan
sg1285
Vrome
p2724
sg1287
Fnan
sg1288
I57
ssI58
(dp2725
g1284
Fnan
sg1285
Vstockholm
p2726
sg1287
Fnan
sg1288
I58
ssI59
(dp2727
g1284
Fnan
sg1285
Vvienna
p2728
sg1287
Fnan
sg1288
I59
ssI60
(dp2729
g1284
Fnan
sg1285
Vwarsaw
p2730
sg1287
Fnan
sg1288
I60
ssI61
(dp2731
g1284
Fnan
sg1285
Vzurich
p2732
sg1287
Fnan
sg1288
I61
ssI62
(dp2733
g1284
Fnan
sg1285
Vquebec
p2734
sg1287
Fnan
sg1288
I62
ssI63
(dp2735
g1284
Fnan
sg1285
Vontario
p2736
sg1287
Fnan
sg1288
I63
ssI64
(dp2737
g1284
Fnan
sg1285
Vmanitoba
p2738
sg1287
Fnan
sg1288
I64
ssI65
(dp2739
g1284
Fnan
sg1285
Vsaskatchewan
p2740
sg1287
Fnan
sg1288
I65
ssI66
(dp2741
g1284
Fnan
sg1285
Valberta
p2742
sg1287
Fnan
sg1288
I66
ssI67
(dp2743
g1284
Fnan
sg1285
Vbritish_columbia
p2744
sg1287
Fnan
sg1288
I67
ssI68
(dp2745
g1284
Fnan
sg1285
Vboise
p2746
sg1287
Fnan
sg1288
I68
ssI69
(dp2747
g1284
Fnan
sg1285
Vboston
p2748
sg1287
Fnan
sg1288
I69
ssI70
(dp2749
g1284
Fnan
sg1285
Vchicago
p2750
sg1287
Fnan
sg1288
I70
ssI71
(dp2751
g1284
Fnan
sg1285
Vdallas
p2752
sg1287
Fnan
sg1288
I71
ssI72
(dp2753
g1284
Fnan
sg1285
Vdenver
p2754
sg1287
Fnan
sg1288
I72
ssI73
(dp2755
g1284
Fnan
sg1285
Vkansas_city
p2756
sg1287
Fnan
sg1288
I73
ssI74
(dp2757
g1284
Fnan
sg1285
Vlas_vegas
p2758
sg1287
Fnan
sg1288
I74
ssI75
(dp2759
g1284
Fnan
sg1285
Vlos_angeles
p2760
sg1287
Fnan
sg1288
I75
ssI76
(dp2761
g1284
Fnan
sg1285
Vmiami
p2762
sg1287
Fnan
sg1288
I76
ssI77
(dp2763
g1284
Fnan
sg1285
Vminneapolis
p2764
sg1287
Fnan
sg1288
I77
ssI78
(dp2765
g1284
Fnan
sg1285
Vnew_york
p2766
sg1287
Fnan
sg1288
I78
ssI79
(dp2767
g1284
Fnan
sg1285
Vnew_orleans
p2768
sg1287
Fnan
sg1288
I79
ssI80
(dp2769
g1284
Fnan
sg1285
Vphoenix
p2770
sg1287
Fnan
sg1288
I80
ssI81
(dp2771
g1284
Fnan
sg1285
Vsanta_fe
p2772
sg1287
Fnan
sg1288
I81
ssI82
(dp2773
g1284
Fnan
sg1285
Vseattle
p2774
sg1287
Fnan
sg1288
I82
ssI83
(dp2775
g1284
Fnan
sg1285
Vwashington_dc
p2776
sg1287
Fnan
sg1288
I83
ssI84
(dp2777
g1284
Fnan
sg1285
Vus_arizona
p2778
sg1287
Fnan
sg1288
I84
ssI85
(dp2779
g1284
Fnan
sg1285
Vchita
p2780
sg1287
Fnan
sg1288
I85
ssI86
(dp2781
g1284
Fnan
sg1285
Vekaterinburg
p2782
sg1287
Fnan
sg1288
I86
ssI87
(dp2783
g1284
Fnan
sg1285
Virkutsk
p2784
sg1287
Fnan
sg1288
I87
ssI88
(dp2785
g1284
Fnan
sg1285
Vkaliningrad
p2786
sg1287
Fnan
sg1288
I88
ssI89
(dp2787
g1284
Fnan
sg1285
Vkrasnoyarsk
p2788
sg1287
Fnan
sg1288
I89
ssI90
(dp2789
g1284
Fnan
sg1285
Vnovosibirsk
p2790
sg1287
Fnan
sg1288
I90
ssI91
(dp2791
g1284
Fnan
sg1285
Vpetropavlovsk_kamchatskiy
p2792
sg1287
Fnan
sg1288
I91
ssI92
(dp2793
g1284
Fnan
sg1285
Vsamara
p2794
sg1287
Fnan
sg1288
I92
ssI93
(dp2795
g1284
Fnan
sg1285
Vvladivostok
p2796
sg1287
Fnan
sg1288
I93
ssI94
(dp2797
g1284
Fnan
sg1285
Vmexico_central
p2798
sg1287
Fnan
sg1288
I94
ssI95
(dp2799
g1284
Fnan
sg1285
Vmexico_mountain
p2800
sg1287
Fnan
sg1288
I95
ssI96
(dp2801
g1284
Fnan
sg1285
Vmexico_pacific
p2802
sg1287
Fnan
sg1288
I96
ssI97
(dp2803
g1284
Fnan
sg1285
Vcape_town
p2804
sg1287
Fnan
sg1288
I97
ssI98
(dp2805
g1284
Fnan
sg1285
Vwinkhoek
p2806
sg1287
Fnan
sg1288
I98
ssI99
(dp2807
g1284
Fnan
sg1285
Vlagos
p2808
sg1287
Fnan
sg1288
I99
ssI100
(dp2809
g1284
Fnan
sg1285
Vriyahd
p2810
sg1287
Fnan
sg1288
I100
ssI101
(dp2811
g1284
Fnan
sg1285
Vvenezuela
p2812
sg1287
Fnan
sg1288
I101
ssI102
(dp2813
g1284
Fnan
sg1285
Vaustralia_lh
p2814
sg1287
Fnan
sg1288
I102
ssI103
(dp2815
g1284
Fnan
sg1285
Vsantiago
p2816
sg1287
Fnan
sg1288
I103
ssI253
(dp2817
g1284
Fnan
sg1285
g1352
sg1287
Fnan
sg1288
I253
ssI254
(dp2818
g1284
Fnan
sg1285
Vautomatic
p2819
sg1287
Fnan
sg1288
I254
sssg122
(dp2820
I0
(dp2821
g1284
Fnan
sg1285
Vfreestyle
p2822
sg1287
Fnan
sg1288
I0
ssI1
(dp2823
g1284
Fnan
sg1285
Vbackstroke
p2824
sg1287
Fnan
sg1288
I1
ssI2
(dp2825
g1284
Fnan
sg1285
Vbreaststroke
p2826
sg1287
Fnan
sg1288
I2
ssI3
(dp2827
g1284
Fnan
sg1285
Vbutterfly
p2828
sg1287
Fnan
sg1288
I3
ssI4
(dp2829
g1284
Fnan
sg1285
Vdrill
p2830
sg1287
Fnan
sg1288
I4
ssI5
(dp2831
g1284
Fnan
sg1285
Vmixed
p2832
sg1287
Fnan
sg1288
I5
ssI6
(dp2833
g1284
Fnan
sg1285
Vim
p2834
sg1287
Fnan
sg1288
I6
sssg124
(dp2835
I0
(dp2836
g1284
Fnan
sg1285
Vlocal_min
p2837
sg1287
Fnan
sg1288
V0x0000
p2838
ssI256
(dp2839
g1284
Fnan
sg1285
Vportable_min
p2840
sg1287
Fnan
sg1288
V0x0100
p2841
ssI15
(dp2842
g1284
Fnan
sg1285
Vlocal_max
p2843
sg1287
Fnan
sg1288
V0x000F
p2844
ssI16
(dp2845
g1284
Fnan
sg1285
Vstationary_min
p2846
sg1287
Fnan
sg1288
V0x0010
p2847
ssI65534
(dp2848
g1284
Fnan
sg1285
Vportable_max
p2849
sg1287
Fnan
sg1288
g1917
ssI255
(dp2850
g1284
Fnan
sg1285
Vstationary_max
p2851
sg1287
Fnan
sg1288
V0x00FF
p2852
sssg126
(dp2853
I0
(dp2854
g1284
Fnan
sg1285
Vfile_id
p2855
sg1287
Fnan
sg1288
I0
ssI1
(dp2856
g1284
Fnan
sg1285
Vcapabilities
p2857
sg1287
Fnan
sg1288
I1
ssI2
(dp2858
g1284
Fnan
sg1285
Vdevice_settings
p2859
sg1287
Fnan
sg1288
I2
ssI3
(dp2860
g1284
Fnan
sg1285
Vuser_profile
p2861
sg1287
Fnan
sg1288
I3
ssI4
(dp2862
g1284
Fnan
sg1285
Vhrm_profile
p2863
sg1287
Fnan
sg1288
I4
ssI5
(dp2864
g1284
Fnan
sg1285
Vsdm_profile
p2865
sg1287
Fnan
sg1288
I5
ssI6
(dp2866
g1284
Fnan
sg1285
Vbike_profile
p2867
sg1287
Fnan
sg1288
I6
ssI7
(dp2868
g1284
Fnan
sg1285
Vzones_target
p2869
sg1287
Fnan
sg1288
I7
ssI8
(dp2870
g1284
Fnan
sg1285
Vhr_zone
p2871
sg1287
Fnan
sg1288
I8
ssI9
(dp2872
g1284
Fnan
sg1285
Vpower_zone
p2873
sg1287
Fnan
sg1288
I9
ssI10
(dp2874
g1284
Fnan
sg1285
Vmet_zone
p2875
sg1287
Fnan
sg1288
I10
ssI12
(dp2876
g1284
Fnan
sg1285
g2037
sg1287
Fnan
sg1288
I12
ssI15
(dp2877
g1284
Fnan
sg1285
Vgoal
p2878
sg1287
Fnan
sg1288
I15
ssI145
(dp2879
g1284
Fnan
sg1285
Vmemo_glob
p2880
sg1287
Fnan
sg1288
I145
ssI18
(dp2881
g1284
Fnan
sg1285
g2107
sg1287
Fnan
sg1288
I18
ssI19
(dp2882
g1284
Fnan
sg1285
g2109
sg1287
Fnan
sg1288
I19
ssI20
(dp2883
g1284
Fnan
sg1285
Vrecord
p2884
sg1287
Fnan
sg1288
I20
ssI21
(dp2885
g1284
Fnan
sg1285
Vevent
p2886
sg1287
Fnan
sg1288
I21
ssI23
(dp2887
g1284
Fnan
sg1285
Vdevice_info
p2888
sg1287
Fnan
sg1288
I23
ssI26
(dp2889
g1284
Fnan
sg1285
g2041
sg1287
Fnan
sg1288
I26
ssI27
(dp2890
g1284
Fnan
sg1285
g2099
sg1287
Fnan
sg1288
I27
ssI28
(dp2891
g1284
Fnan
sg1285
Vschedule
p2892
sg1287
Fnan
sg1288
I28
ssI30
(dp2893
g1284
Fnan
sg1285
g1793
sg1287
Fnan
sg1288
I30
ssI31
(dp2894
g1284
Fnan
sg1285
g2043
sg1287
Fnan
sg1288
I31
ssI32
(dp2895
g1284
Fnan
sg1285
g2111
sg1287
Fnan
sg1288
I32
ssI33
(dp2896
g1284
Fnan
sg1285
g2049
sg1287
Fnan
sg1288
I33
ssI34
(dp2897
g1284
Fnan
sg1285
g2039
sg1287
Fnan
sg1288
I34
ssI35
(dp2898
g1284
Fnan
sg1285
Vsoftware
p2899
sg1287
Fnan
sg1288
I35
ssI37
(dp2900
g1284
Fnan
sg1285
Vfile_capabilities
p2901
sg1287
Fnan
sg1288
I37
ssI38
(dp2902
g1284
Fnan
sg1285
Vmesg_capabilities
p2903
sg1287
Fnan
sg1288
I38
ssI39
(dp2904
g1284
Fnan
sg1285
Vfield_capabilities
p2905
sg1287
Fnan
sg1288
I39
ssI49
(dp2906
g1284
Fnan
sg1285
Vfile_creator
p2907
sg1287
Fnan
sg1288
I49
ssI51
(dp2908
g1284
Fnan
sg1285
g1787
sg1287
Fnan
sg1288
I51
ssI53
(dp2909
g1284
Fnan
sg1285
Vspeed_zone
p2910
sg1287
Fnan
sg1288
I53
ssI55
(dp2911
g1284
Fnan
sg1285
Vmonitoring
p2912
sg1287
Fnan
sg1288
I55
ssI72
(dp2913
g1284
Fnan
sg1285
Vtraining_file
p2914
sg1287
Fnan
sg1288
I72
ssI78
(dp2915
g1284
Fnan
sg1285
Vhrv
p2916
sg1287
Fnan
sg1288
I78
ssI131
(dp2917
g1284
Fnan
sg1285
Vcadence_zone
p2918
sg1287
Fnan
sg1288
I131
ssI101
(dp2919
g1284
Fnan
sg1285
g2145
sg1287
Fnan
sg1288
I101
ssI103
(dp2920
g1284
Fnan
sg1285
Vmonitoring_info
p2921
sg1287
Fnan
sg1288
I103
ssI105
(dp2922
g1284
Fnan
sg1285
Vpad
p2923
sg1287
Fnan
sg1288
I105
ssI106
(dp2924
g1284
Fnan
sg1285
Vslave_device
p2925
sg1287
Fnan
sg1288
I106
ssI65534
(dp2926
g1284
Fnan
sg1285
g2063
sg1287
Fnan
sg1288
g1917
ssI65280
(dp2927
g1284
Fnan
sg1285
g2058
sg1287
Fnan
sg1288
V0xFF00
p2928
sssg128
(dp2929
I0
(dp2930
g1284
Fnan
sg1285
Vpublic
p2931
sg1287
Fnan
sg1288
I0
ssI1
(dp2932
g1284
Fnan
sg1285
g2328
sg1287
Fnan
sg1288
I1
ssI2
(dp2933
g1284
Fnan
sg1285
g1774
sg1287
Fnan
sg1288
I2
ssI3
(dp2934
g1284
Fnan
sg1285
Vprivate
p2935
sg1287
Fnan
sg1288
I3
sssg130
(dp2936
I0
(dp2937
g1284
Fnan
sg1285
g1403
sg1287
Fnan
sg1288
I0
ssI1
(dp2938
g1284
Fnan
sg1285
g1479
sg1287
Fnan
sg1288
I1
ssI2
(dp2939
g1284
Fnan
sg1285
g1481
sg1287
Fnan
sg1288
I2
ssI3
(dp2940
g1284
Fnan
sg1285
g1483
sg1287
Fnan
sg1288
I3
ssI4
(dp2941
g1284
Fnan
sg1285
g1322
sg1287
Fnan
sg1288
I4
ssI5
(dp2942
g1284
Fnan
sg1285
g1474
sg1287
Fnan
sg1288
I5
ssI6
(dp2943
g1284
Fnan
sg1285
g1500
sg1287
Fnan
sg1288
I6
ssI254
(dp2944
g1284
Fnan
sg1285
g1461
sg1287
Fnan
sg1288
I254
ssss.